
windlogger_1.elf:     format de fichier elf32-avr

Sections :
Idx Nom           Taille    VMA       LMA       Fich off  Algn
  0 .data         0000044e  00800200  00003870  00003904  2**0
                  CONTENTS, ALLOC, LOAD, DATA
  1 .text         00003870  00000000  00000000  00000094  2**1
                  CONTENTS, ALLOC, LOAD, READONLY, CODE
  2 .bss          000000df  0080064e  0080064e  00003d52  2**0
                  ALLOC
  3 .comment      00000011  00000000  00000000  00003d52  2**0
                  CONTENTS, READONLY

Déassemblage de la section .text :

00000000 <__vectors>:
       0:	0c 94 5e 01 	jmp	0x2bc	; 0x2bc <__ctors_end>
       4:	0c 94 7f 01 	jmp	0x2fe	; 0x2fe <__bad_interrupt>
       8:	0c 94 7f 01 	jmp	0x2fe	; 0x2fe <__bad_interrupt>
       c:	0c 94 7f 01 	jmp	0x2fe	; 0x2fe <__bad_interrupt>
      10:	0c 94 7f 01 	jmp	0x2fe	; 0x2fe <__bad_interrupt>
      14:	0c 94 39 0f 	jmp	0x1e72	; 0x1e72 <__vector_5>
      18:	0c 94 7f 01 	jmp	0x2fe	; 0x2fe <__bad_interrupt>
      1c:	0c 94 7f 01 	jmp	0x2fe	; 0x2fe <__bad_interrupt>
      20:	0c 94 7f 01 	jmp	0x2fe	; 0x2fe <__bad_interrupt>
      24:	0c 94 7f 01 	jmp	0x2fe	; 0x2fe <__bad_interrupt>
      28:	0c 94 7f 01 	jmp	0x2fe	; 0x2fe <__bad_interrupt>
      2c:	0c 94 7f 01 	jmp	0x2fe	; 0x2fe <__bad_interrupt>
      30:	0c 94 7f 01 	jmp	0x2fe	; 0x2fe <__bad_interrupt>
      34:	0c 94 e6 10 	jmp	0x21cc	; 0x21cc <__vector_13>
      38:	0c 94 7f 01 	jmp	0x2fe	; 0x2fe <__bad_interrupt>
      3c:	0c 94 7f 01 	jmp	0x2fe	; 0x2fe <__bad_interrupt>
      40:	0c 94 7f 01 	jmp	0x2fe	; 0x2fe <__bad_interrupt>
      44:	0c 94 b1 10 	jmp	0x2162	; 0x2162 <__vector_17>
      48:	0c 94 7f 01 	jmp	0x2fe	; 0x2fe <__bad_interrupt>
      4c:	0c 94 7f 01 	jmp	0x2fe	; 0x2fe <__bad_interrupt>
      50:	0c 94 7f 01 	jmp	0x2fe	; 0x2fe <__bad_interrupt>
      54:	0c 94 7f 01 	jmp	0x2fe	; 0x2fe <__bad_interrupt>
      58:	0c 94 7f 01 	jmp	0x2fe	; 0x2fe <__bad_interrupt>
      5c:	0c 94 7f 01 	jmp	0x2fe	; 0x2fe <__bad_interrupt>
      60:	0c 94 7f 01 	jmp	0x2fe	; 0x2fe <__bad_interrupt>
      64:	0c 94 ae 12 	jmp	0x255c	; 0x255c <__vector_25>
      68:	0c 94 7f 01 	jmp	0x2fe	; 0x2fe <__bad_interrupt>
      6c:	0c 94 7f 01 	jmp	0x2fe	; 0x2fe <__bad_interrupt>
      70:	0c 94 7f 01 	jmp	0x2fe	; 0x2fe <__bad_interrupt>
      74:	0c 94 7f 01 	jmp	0x2fe	; 0x2fe <__bad_interrupt>
      78:	0c 94 7f 01 	jmp	0x2fe	; 0x2fe <__bad_interrupt>
      7c:	0c 94 7f 01 	jmp	0x2fe	; 0x2fe <__bad_interrupt>
      80:	0c 94 7f 01 	jmp	0x2fe	; 0x2fe <__bad_interrupt>
      84:	0c 94 7f 01 	jmp	0x2fe	; 0x2fe <__bad_interrupt>
      88:	0c 94 7f 01 	jmp	0x2fe	; 0x2fe <__bad_interrupt>
      8c:	0c 94 7f 01 	jmp	0x2fe	; 0x2fe <__bad_interrupt>
      90:	0c 94 7f 01 	jmp	0x2fe	; 0x2fe <__bad_interrupt>
      94:	0c 94 7f 01 	jmp	0x2fe	; 0x2fe <__bad_interrupt>
      98:	0c 94 7f 01 	jmp	0x2fe	; 0x2fe <__bad_interrupt>
      9c:	0c 94 7f 01 	jmp	0x2fe	; 0x2fe <__bad_interrupt>
      a0:	0c 94 7f 01 	jmp	0x2fe	; 0x2fe <__bad_interrupt>
      a4:	0c 94 7f 01 	jmp	0x2fe	; 0x2fe <__bad_interrupt>
      a8:	0c 94 7f 01 	jmp	0x2fe	; 0x2fe <__bad_interrupt>
      ac:	0c 94 7f 01 	jmp	0x2fe	; 0x2fe <__bad_interrupt>
      b0:	0c 94 7f 01 	jmp	0x2fe	; 0x2fe <__bad_interrupt>
      b4:	0c 94 27 0f 	jmp	0x1e4e	; 0x1e4e <__vector_45>
      b8:	0c 94 7f 01 	jmp	0x2fe	; 0x2fe <__bad_interrupt>
      bc:	0c 94 7f 01 	jmp	0x2fe	; 0x2fe <__bad_interrupt>
      c0:	0c 94 7f 01 	jmp	0x2fe	; 0x2fe <__bad_interrupt>
      c4:	0c 94 7f 01 	jmp	0x2fe	; 0x2fe <__bad_interrupt>
      c8:	0c 94 7f 01 	jmp	0x2fe	; 0x2fe <__bad_interrupt>
      cc:	0c 94 7f 01 	jmp	0x2fe	; 0x2fe <__bad_interrupt>
      d0:	0c 94 7f 01 	jmp	0x2fe	; 0x2fe <__bad_interrupt>
      d4:	0c 94 7f 01 	jmp	0x2fe	; 0x2fe <__bad_interrupt>
      d8:	0c 94 7f 01 	jmp	0x2fe	; 0x2fe <__bad_interrupt>
      dc:	0c 94 7f 01 	jmp	0x2fe	; 0x2fe <__bad_interrupt>
      e0:	0c 94 7f 01 	jmp	0x2fe	; 0x2fe <__bad_interrupt>
      e4:	b8 01       	movw	r22, r16
      e6:	78 02       	muls	r23, r24
      e8:	78 02       	muls	r23, r24
      ea:	78 02       	muls	r23, r24
      ec:	78 02       	muls	r23, r24
      ee:	78 02       	muls	r23, r24
      f0:	78 02       	muls	r23, r24
      f2:	78 02       	muls	r23, r24
      f4:	78 02       	muls	r23, r24
      f6:	78 02       	muls	r23, r24
      f8:	78 02       	muls	r23, r24
      fa:	f0 01       	movw	r30, r0
      fc:	f8 01       	movw	r30, r16
      fe:	02 02       	muls	r16, r18
     100:	0a 02       	muls	r16, r26
     102:	15 02       	muls	r17, r21
     104:	1f 02       	muls	r17, r31
     106:	29 02       	muls	r18, r25
     108:	78 02       	muls	r23, r24
     10a:	78 02       	muls	r23, r24
     10c:	33 02       	muls	r19, r19
     10e:	3c 02       	muls	r19, r28
     110:	45 02       	muls	r20, r21
     112:	78 02       	muls	r23, r24
     114:	78 02       	muls	r23, r24
     116:	78 02       	muls	r23, r24
     118:	78 02       	muls	r23, r24
     11a:	78 02       	muls	r23, r24
     11c:	78 02       	muls	r23, r24
     11e:	78 02       	muls	r23, r24
     120:	4b 02       	muls	r20, r27
     122:	53 02       	muls	r21, r19
     124:	5b 02       	muls	r21, r27
     126:	64 02       	muls	r22, r20
     128:	6d 02       	muls	r22, r29

0000012a <__trampolines_start>:
     12a:	0c 94 2f 0a 	jmp	0x145e	; 0x145e <state_sleep>
     12e:	0c 94 53 02 	jmp	0x4a6	; 0x4a6 <config_update+0x182>
     132:	0c 94 2a 09 	jmp	0x1254	; 0x1254 <state_measure>
     136:	0c 94 64 02 	jmp	0x4c8	; 0x4c8 <config_update+0x1a4>
     13a:	0c 94 6b 09 	jmp	0x12d6	; 0x12d6 <state_timestamp>
     13e:	0c 94 5b 02 	jmp	0x4b6	; 0x4b6 <config_update+0x192>
     142:	0c 94 f0 01 	jmp	0x3e0	; 0x3e0 <config_update+0xbc>
     146:	0c 94 b8 01 	jmp	0x370	; 0x370 <config_update+0x4c>
     14a:	0c 94 4b 02 	jmp	0x496	; 0x496 <config_update+0x172>
     14e:	0c 94 15 02 	jmp	0x42a	; 0x42a <config_update+0x106>
     152:	0c 94 0a 02 	jmp	0x414	; 0x414 <config_update+0xf0>
     156:	0c 94 29 02 	jmp	0x452	; 0x452 <config_update+0x12e>
     15a:	0c 94 f8 01 	jmp	0x3f0	; 0x3f0 <config_update+0xcc>
     15e:	0c 94 3c 02 	jmp	0x478	; 0x478 <config_update+0x154>
     162:	0c 94 44 0a 	jmp	0x1488	; 0x1488 <state_idle>
     166:	0c 94 02 02 	jmp	0x404	; 0x404 <config_update+0xe0>
     16a:	0c 94 1f 02 	jmp	0x43e	; 0x43e <config_update+0x11a>
     16e:	0c 94 04 09 	jmp	0x1208	; 0x1208 <state_config>
     172:	0c 94 6d 02 	jmp	0x4da	; 0x4da <config_update+0x1b6>
     176:	0c 94 78 02 	jmp	0x4f0	; 0x4f0 <config_update+0x1cc>
     17a:	0c 94 7e 09 	jmp	0x12fc	; 0x12fc <state_output>
     17e:	0c 94 45 02 	jmp	0x48a	; 0x48a <config_update+0x166>
     182:	0c 94 33 02 	jmp	0x466	; 0x466 <config_update+0x142>

00000186 <__trampolines_end>:
     186:	4e 41       	sbci	r20, 0x1E	; 30
     188:	4e 49       	sbci	r20, 0x9E	; 158

00000189 <pstr_inity>:
     189:	49 4e 49 54 59                                      INITY

0000018e <pstr_inf>:
     18e:	49 4e 46                                            INF

00000191 <pwr_m10>:
     191:	cd cc cc 3d 0a d7 23 3c 17 b7 d1 38 77 cc 2b 32     ...=..#<...8w.+2
     1a1:	95 95 e6 24 1f b1 4f 0a                             ...$..O.

000001a9 <pwr_p10>:
     1a9:	00 00 20 41 00 00 c8 42 00 40 1c 46 20 bc be 4c     .. A...B.@.F ..L
     1b9:	ca 1b 0e 5a ae c5 9d 74 00 40 7a 10 f3 5a 00 a0     ...Z...t.@z..Z..
     1c9:	72 4e 18 09 00 10 a5 d4 e8 00 00 e8 76 48 17 00     rN..........vH..
     1d9:	00 e4 0b 54 02 00 00 ca 9a 3b 00 00 00 e1 f5 05     ...T.....;......
     1e9:	00 00 80 96 98 00 00 00 40 42 0f 00 00 00 a0 86     ........@B......
     1f9:	01 00 00 00 10 27 00 00 00 00 e8 03 00 00 00 00     .....'..........
     209:	64 00 00 00 00 00 0a 00 00 00 00 00 01 00 00 00     d...............
     219:	00 00 2c 76 d8 88 dc 67 4f 08 23 df c1 df ae 59     ..,v...gO.#....Y
     229:	e1 b1 b7 96 e5 e3 e4 53 c6 3a e6 51 99 76 96 e8     .......S.:.Q.v..
     239:	e6 c2 84 26 eb 89 8c 9b 62 ed 40 7c 6f fc ef bc     ...&....b.@|o...
     249:	9c 9f 40 f2 ba a5 6f a5 f4 90 05 5a 2a f7 5c 93     ..@...o....Z*.\.
     259:	6b 6c f9 67 6d c1 1b fc e0 e4 0d 47 fe f5 20 e6     kl.gm......G.. .
     269:	b5 00 d0 ed 90 2e 03 00 94 35 77 05 00 80 84 1e     .........5w.....
     279:	08 00 00 20 4e 0a 00 00 00 c8 0c 33 33 33 33 0f     ... N......3333.
     289:	98 6e 12 83 11 41 ef 8d 21 14 89 3b e6 55 16 cf     .n...A..!..;.U..
     299:	fe e6 db 18 d1 84 4b 38 1b f7 7c 1d 90 1d a4 bb     ......K8..|.....
     2a9:	e4 24 20 32 84 72 5e 22 81 00 c9 f1 24 ec a1 e5     .$ 2.r^"....$...
     2b9:	3d 27 00                                            ='.

000002bc <__ctors_end>:
     2bc:	11 24       	eor	r1, r1
     2be:	1f be       	out	0x3f, r1	; 63
     2c0:	cf ef       	ldi	r28, 0xFF	; 255
     2c2:	d1 e2       	ldi	r29, 0x21	; 33
     2c4:	de bf       	out	0x3e, r29	; 62
     2c6:	cd bf       	out	0x3d, r28	; 61
     2c8:	00 e0       	ldi	r16, 0x00	; 0
     2ca:	0c bf       	out	0x3c, r16	; 60

000002cc <__do_copy_data>:
     2cc:	16 e0       	ldi	r17, 0x06	; 6
     2ce:	a0 e0       	ldi	r26, 0x00	; 0
     2d0:	b2 e0       	ldi	r27, 0x02	; 2
     2d2:	e0 e7       	ldi	r30, 0x70	; 112
     2d4:	f8 e3       	ldi	r31, 0x38	; 56
     2d6:	00 e0       	ldi	r16, 0x00	; 0
     2d8:	0b bf       	out	0x3b, r16	; 59
     2da:	02 c0       	rjmp	.+4      	; 0x2e0 <__do_copy_data+0x14>
     2dc:	07 90       	elpm	r0, Z+
     2de:	0d 92       	st	X+, r0
     2e0:	ae 34       	cpi	r26, 0x4E	; 78
     2e2:	b1 07       	cpc	r27, r17
     2e4:	d9 f7       	brne	.-10     	; 0x2dc <__do_copy_data+0x10>

000002e6 <__do_clear_bss>:
     2e6:	27 e0       	ldi	r18, 0x07	; 7
     2e8:	ae e4       	ldi	r26, 0x4E	; 78
     2ea:	b6 e0       	ldi	r27, 0x06	; 6
     2ec:	01 c0       	rjmp	.+2      	; 0x2f0 <.do_clear_bss_start>

000002ee <.do_clear_bss_loop>:
     2ee:	1d 92       	st	X+, r1

000002f0 <.do_clear_bss_start>:
     2f0:	ad 32       	cpi	r26, 0x2D	; 45
     2f2:	b2 07       	cpc	r27, r18
     2f4:	e1 f7       	brne	.-8      	; 0x2ee <.do_clear_bss_loop>
     2f6:	0e 94 55 0a 	call	0x14aa	; 0x14aa <main>
     2fa:	0c 94 36 1c 	jmp	0x386c	; 0x386c <_exit>

000002fe <__bad_interrupt>:
     2fe:	0c 94 00 00 	jmp	0	; 0x0 <__vectors>

00000302 <adc_value>:
     302:	80 64       	ori	r24, 0x40	; 64
     304:	80 93 7c 00 	sts	0x007C, r24
     308:	85 ec       	ldi	r24, 0xC5	; 197
     30a:	80 93 7a 00 	sts	0x007A, r24
     30e:	80 91 7a 00 	lds	r24, 0x007A
     312:	86 fd       	sbrc	r24, 6
     314:	fc cf       	rjmp	.-8      	; 0x30e <adc_value+0xc>
     316:	10 92 7a 00 	sts	0x007A, r1
     31a:	80 91 78 00 	lds	r24, 0x0078
     31e:	90 91 79 00 	lds	r25, 0x0079
     322:	08 95       	ret

00000324 <config_update>:
     324:	cf 92       	push	r12
     326:	df 92       	push	r13
     328:	ef 92       	push	r14
     32a:	ff 92       	push	r15
     32c:	0f 93       	push	r16
     32e:	1f 93       	push	r17
     330:	cf 93       	push	r28
     332:	df 93       	push	r29
     334:	1f 92       	push	r1
     336:	cd b7       	in	r28, 0x3d	; 61
     338:	de b7       	in	r29, 0x3e	; 62
     33a:	6c 01       	movw	r12, r24
     33c:	01 96       	adiw	r24, 0x01	; 1
     33e:	0e 94 c1 12 	call	0x2582	; 0x2582 <get_Arg>
     342:	08 2f       	mov	r16, r24
     344:	84 e0       	ldi	r24, 0x04	; 4
     346:	c8 0e       	add	r12, r24
     348:	d1 1c       	adc	r13, r1
     34a:	c6 01       	movw	r24, r12
     34c:	0e 94 5d 17 	call	0x2eba	; 0x2eba <atoi>
     350:	7c 01       	movw	r14, r24
     352:	c6 01       	movw	r24, r12
     354:	e9 82       	std	Y+1, r14	; 0x01
     356:	0e 94 59 17 	call	0x2eb2	; 0x2eb2 <atof>
     35a:	10 e0       	ldi	r17, 0x00	; 0
     35c:	49 81       	ldd	r20, Y+1	; 0x01
     35e:	03 32       	cpi	r16, 0x23	; 35
     360:	11 05       	cpc	r17, r1
     362:	08 f0       	brcs	.+2      	; 0x366 <config_update+0x42>
     364:	c5 c0       	rjmp	.+394    	; 0x4f0 <config_update+0x1cc>
     366:	f8 01       	movw	r30, r16
     368:	ee 58       	subi	r30, 0x8E	; 142
     36a:	ff 4f       	sbci	r31, 0xFF	; 255
     36c:	0c 94 a4 14 	jmp	0x2948	; 0x2948 <__tablejump2__>
     370:	ff 24       	eor	r15, r15
     372:	e1 e0       	ldi	r30, 0x01	; 1
     374:	ee 16       	cp	r14, r30
     376:	f1 04       	cpc	r15, r1
     378:	d1 f0       	breq	.+52     	; 0x3ae <config_update+0x8a>
     37a:	4c f4       	brge	.+18     	; 0x38e <config_update+0x6a>
     37c:	ef 28       	or	r14, r15
     37e:	69 f5       	brne	.+90     	; 0x3da <config_update+0xb6>
     380:	10 92 74 06 	sts	0x0674, r1
     384:	10 92 76 06 	sts	0x0676, r1
     388:	10 92 77 06 	sts	0x0677, r1
     38c:	21 c0       	rjmp	.+66     	; 0x3d0 <config_update+0xac>
     38e:	82 e0       	ldi	r24, 0x02	; 2
     390:	e8 16       	cp	r14, r24
     392:	f1 04       	cpc	r15, r1
     394:	a1 f0       	breq	.+40     	; 0x3be <config_update+0x9a>
     396:	e3 e0       	ldi	r30, 0x03	; 3
     398:	ee 16       	cp	r14, r30
     39a:	f1 04       	cpc	r15, r1
     39c:	f1 f4       	brne	.+60     	; 0x3da <config_update+0xb6>
     39e:	83 e0       	ldi	r24, 0x03	; 3
     3a0:	80 93 74 06 	sts	0x0674, r24
     3a4:	8a e0       	ldi	r24, 0x0A	; 10
     3a6:	80 93 76 06 	sts	0x0676, r24
     3aa:	8c e3       	ldi	r24, 0x3C	; 60
     3ac:	0f c0       	rjmp	.+30     	; 0x3cc <config_update+0xa8>
     3ae:	81 e0       	ldi	r24, 0x01	; 1
     3b0:	80 93 74 06 	sts	0x0674, r24
     3b4:	82 e0       	ldi	r24, 0x02	; 2
     3b6:	80 93 76 06 	sts	0x0676, r24
     3ba:	85 e0       	ldi	r24, 0x05	; 5
     3bc:	07 c0       	rjmp	.+14     	; 0x3cc <config_update+0xa8>
     3be:	82 e0       	ldi	r24, 0x02	; 2
     3c0:	80 93 74 06 	sts	0x0674, r24
     3c4:	84 e0       	ldi	r24, 0x04	; 4
     3c6:	80 93 76 06 	sts	0x0676, r24
     3ca:	8f e0       	ldi	r24, 0x0F	; 15
     3cc:	80 93 77 06 	sts	0x0677, r24
     3d0:	0e 94 b8 03 	call	0x770	; 0x770 <ee_write_logger>
     3d4:	10 92 75 06 	sts	0x0675, r1
     3d8:	8f c0       	rjmp	.+286    	; 0x4f8 <config_update+0x1d4>
     3da:	8e e3       	ldi	r24, 0x3E	; 62
     3dc:	92 e0       	ldi	r25, 0x02	; 2
     3de:	8a c0       	rjmp	.+276    	; 0x4f4 <config_update+0x1d0>
     3e0:	4c 33       	cpi	r20, 0x3C	; 60
     3e2:	18 f4       	brcc	.+6      	; 0x3ea <config_update+0xc6>
     3e4:	6e 2d       	mov	r22, r14
     3e6:	82 e0       	ldi	r24, 0x02	; 2
     3e8:	07 c0       	rjmp	.+14     	; 0x3f8 <config_update+0xd4>
     3ea:	82 e5       	ldi	r24, 0x52	; 82
     3ec:	92 e0       	ldi	r25, 0x02	; 2
     3ee:	82 c0       	rjmp	.+260    	; 0x4f4 <config_update+0x1d0>
     3f0:	4c 33       	cpi	r20, 0x3C	; 60
     3f2:	28 f4       	brcc	.+10     	; 0x3fe <config_update+0xda>
     3f4:	6e 2d       	mov	r22, r14
     3f6:	83 e0       	ldi	r24, 0x03	; 3
     3f8:	0e 94 5e 0e 	call	0x1cbc	; 0x1cbc <RTC_update_reg>
     3fc:	7d c0       	rjmp	.+250    	; 0x4f8 <config_update+0x1d4>
     3fe:	86 e6       	ldi	r24, 0x66	; 102
     400:	92 e0       	ldi	r25, 0x02	; 2
     402:	78 c0       	rjmp	.+240    	; 0x4f4 <config_update+0x1d0>
     404:	48 31       	cpi	r20, 0x18	; 24
     406:	18 f4       	brcc	.+6      	; 0x40e <config_update+0xea>
     408:	6e 2d       	mov	r22, r14
     40a:	84 e0       	ldi	r24, 0x04	; 4
     40c:	f5 cf       	rjmp	.-22     	; 0x3f8 <config_update+0xd4>
     40e:	8a e7       	ldi	r24, 0x7A	; 122
     410:	92 e0       	ldi	r25, 0x02	; 2
     412:	70 c0       	rjmp	.+224    	; 0x4f4 <config_update+0x1d0>
     414:	c6 01       	movw	r24, r12
     416:	0e 94 5d 17 	call	0x2eba	; 0x2eba <atoi>
     41a:	87 30       	cpi	r24, 0x07	; 7
     41c:	18 f4       	brcc	.+6      	; 0x424 <config_update+0x100>
     41e:	68 2f       	mov	r22, r24
     420:	86 e0       	ldi	r24, 0x06	; 6
     422:	ea cf       	rjmp	.-44     	; 0x3f8 <config_update+0xd4>
     424:	8e e8       	ldi	r24, 0x8E	; 142
     426:	92 e0       	ldi	r25, 0x02	; 2
     428:	65 c0       	rjmp	.+202    	; 0x4f4 <config_update+0x1d0>
     42a:	8f ef       	ldi	r24, 0xFF	; 255
     42c:	8e 0d       	add	r24, r14
     42e:	8f 31       	cpi	r24, 0x1F	; 31
     430:	18 f4       	brcc	.+6      	; 0x438 <config_update+0x114>
     432:	6e 2d       	mov	r22, r14
     434:	85 e0       	ldi	r24, 0x05	; 5
     436:	e0 cf       	rjmp	.-64     	; 0x3f8 <config_update+0xd4>
     438:	84 ea       	ldi	r24, 0xA4	; 164
     43a:	92 e0       	ldi	r25, 0x02	; 2
     43c:	5b c0       	rjmp	.+182    	; 0x4f4 <config_update+0x1d0>
     43e:	8f ef       	ldi	r24, 0xFF	; 255
     440:	8e 0d       	add	r24, r14
     442:	8c 30       	cpi	r24, 0x0C	; 12
     444:	18 f4       	brcc	.+6      	; 0x44c <config_update+0x128>
     446:	6e 2d       	mov	r22, r14
     448:	87 e0       	ldi	r24, 0x07	; 7
     44a:	d6 cf       	rjmp	.-84     	; 0x3f8 <config_update+0xd4>
     44c:	86 eb       	ldi	r24, 0xB6	; 182
     44e:	92 e0       	ldi	r25, 0x02	; 2
     450:	51 c0       	rjmp	.+162    	; 0x4f4 <config_update+0x1d0>
     452:	80 ef       	ldi	r24, 0xF0	; 240
     454:	8e 0d       	add	r24, r14
     456:	83 35       	cpi	r24, 0x53	; 83
     458:	18 f4       	brcc	.+6      	; 0x460 <config_update+0x13c>
     45a:	6e 2d       	mov	r22, r14
     45c:	88 e0       	ldi	r24, 0x08	; 8
     45e:	cc cf       	rjmp	.-104    	; 0x3f8 <config_update+0xd4>
     460:	8a ec       	ldi	r24, 0xCA	; 202
     462:	92 e0       	ldi	r25, 0x02	; 2
     464:	47 c0       	rjmp	.+142    	; 0x4f4 <config_update+0x1d0>
     466:	60 93 a6 06 	sts	0x06A6, r22
     46a:	70 93 a7 06 	sts	0x06A7, r23
     46e:	80 93 a8 06 	sts	0x06A8, r24
     472:	90 93 a9 06 	sts	0x06A9, r25
     476:	39 c0       	rjmp	.+114    	; 0x4ea <config_update+0x1c6>
     478:	60 93 aa 06 	sts	0x06AA, r22
     47c:	70 93 ab 06 	sts	0x06AB, r23
     480:	80 93 ac 06 	sts	0x06AC, r24
     484:	90 93 ad 06 	sts	0x06AD, r25
     488:	30 c0       	rjmp	.+96     	; 0x4ea <config_update+0x1c6>
     48a:	ff 24       	eor	r15, r15
     48c:	f0 92 bb 06 	sts	0x06BB, r15
     490:	e0 92 ba 06 	sts	0x06BA, r14
     494:	2a c0       	rjmp	.+84     	; 0x4ea <config_update+0x1c6>
     496:	49 30       	cpi	r20, 0x09	; 9
     498:	78 f5       	brcc	.+94     	; 0x4f8 <config_update+0x1d4>
     49a:	ff 24       	eor	r15, r15
     49c:	f0 92 cd 06 	sts	0x06CD, r15
     4a0:	e0 92 cc 06 	sts	0x06CC, r14
     4a4:	22 c0       	rjmp	.+68     	; 0x4ea <config_update+0x1c6>
     4a6:	49 30       	cpi	r20, 0x09	; 9
     4a8:	38 f5       	brcc	.+78     	; 0x4f8 <config_update+0x1d4>
     4aa:	ff 24       	eor	r15, r15
     4ac:	f0 92 cf 06 	sts	0x06CF, r15
     4b0:	e0 92 ce 06 	sts	0x06CE, r14
     4b4:	1a c0       	rjmp	.+52     	; 0x4ea <config_update+0x1c6>
     4b6:	60 93 d0 06 	sts	0x06D0, r22
     4ba:	70 93 d1 06 	sts	0x06D1, r23
     4be:	80 93 d2 06 	sts	0x06D2, r24
     4c2:	90 93 d3 06 	sts	0x06D3, r25
     4c6:	11 c0       	rjmp	.+34     	; 0x4ea <config_update+0x1c6>
     4c8:	60 93 d4 06 	sts	0x06D4, r22
     4cc:	70 93 d5 06 	sts	0x06D5, r23
     4d0:	80 93 d6 06 	sts	0x06D6, r24
     4d4:	90 93 d7 06 	sts	0x06D7, r25
     4d8:	08 c0       	rjmp	.+16     	; 0x4ea <config_update+0x1c6>
     4da:	60 93 d8 06 	sts	0x06D8, r22
     4de:	70 93 d9 06 	sts	0x06D9, r23
     4e2:	80 93 da 06 	sts	0x06DA, r24
     4e6:	90 93 db 06 	sts	0x06DB, r25
     4ea:	0e 94 b8 03 	call	0x770	; 0x770 <ee_write_logger>
     4ee:	04 c0       	rjmp	.+8      	; 0x4f8 <config_update+0x1d4>
     4f0:	8f ed       	ldi	r24, 0xDF	; 223
     4f2:	92 e0       	ldi	r25, 0x02	; 2
     4f4:	0e 94 9b 12 	call	0x2536	; 0x2536 <USART0_print>
     4f8:	80 91 f0 06 	lds	r24, 0x06F0
     4fc:	90 91 f1 06 	lds	r25, 0x06F1
     500:	0e 94 57 0d 	call	0x1aae	; 0x1aae <RTC_get_date>
     504:	0f 90       	pop	r0
     506:	df 91       	pop	r29
     508:	cf 91       	pop	r28
     50a:	1f 91       	pop	r17
     50c:	0f 91       	pop	r16
     50e:	ff 90       	pop	r15
     510:	ef 90       	pop	r14
     512:	df 90       	pop	r13
     514:	cf 90       	pop	r12
     516:	0c 94 cb 12 	jmp	0x2596	; 0x2596 <USART0_print_conf>

0000051a <debug_print>:
     51a:	0f 93       	push	r16
     51c:	1f 93       	push	r17
     51e:	cf 93       	push	r28
     520:	df 93       	push	r29
     522:	1f 92       	push	r1
     524:	cd b7       	in	r28, 0x3d	; 61
     526:	de b7       	in	r29, 0x3e	; 62
     528:	8b 01       	movw	r16, r22
     52a:	49 83       	std	Y+1, r20	; 0x01
     52c:	0e 94 9b 12 	call	0x2536	; 0x2536 <USART0_print>
     530:	85 e4       	ldi	r24, 0x45	; 69
     532:	93 e0       	ldi	r25, 0x03	; 3
     534:	0e 94 9b 12 	call	0x2536	; 0x2536 <USART0_print>
     538:	c8 01       	movw	r24, r16
     53a:	0e 94 9b 12 	call	0x2536	; 0x2536 <USART0_print>
     53e:	49 81       	ldd	r20, Y+1	; 0x01
     540:	41 30       	cpi	r20, 0x01	; 1
     542:	49 f4       	brne	.+18     	; 0x556 <debug_print+0x3c>
     544:	83 e0       	ldi	r24, 0x03	; 3
     546:	93 e0       	ldi	r25, 0x03	; 3
     548:	0f 90       	pop	r0
     54a:	df 91       	pop	r29
     54c:	cf 91       	pop	r28
     54e:	1f 91       	pop	r17
     550:	0f 91       	pop	r16
     552:	0c 94 9b 12 	jmp	0x2536	; 0x2536 <USART0_print>
     556:	0f 90       	pop	r0
     558:	df 91       	pop	r29
     55a:	cf 91       	pop	r28
     55c:	1f 91       	pop	r17
     55e:	0f 91       	pop	r16
     560:	08 95       	ret

00000562 <debug_printd>:
     562:	9f 92       	push	r9
     564:	af 92       	push	r10
     566:	bf 92       	push	r11
     568:	cf 92       	push	r12
     56a:	df 92       	push	r13
     56c:	ef 92       	push	r14
     56e:	ff 92       	push	r15
     570:	0f 93       	push	r16
     572:	1f 93       	push	r17
     574:	cf 93       	push	r28
     576:	df 93       	push	r29
     578:	cd b7       	in	r28, 0x3d	; 61
     57a:	de b7       	in	r29, 0x3e	; 62
     57c:	64 97       	sbiw	r28, 0x14	; 20
     57e:	0f b6       	in	r0, 0x3f	; 63
     580:	f8 94       	cli
     582:	de bf       	out	0x3e, r29	; 62
     584:	0f be       	out	0x3f, r0	; 63
     586:	cd bf       	out	0x3d, r28	; 61
     588:	5b 01       	movw	r10, r22
     58a:	69 01       	movw	r12, r18
     58c:	7a 01       	movw	r14, r20
     58e:	90 2e       	mov	r9, r16
     590:	0e 94 9b 12 	call	0x2536	; 0x2536 <USART0_print>
     594:	85 e4       	ldi	r24, 0x45	; 69
     596:	93 e0       	ldi	r25, 0x03	; 3
     598:	0e 94 9b 12 	call	0x2536	; 0x2536 <USART0_print>
     59c:	c5 01       	movw	r24, r10
     59e:	0e 94 9b 12 	call	0x2536	; 0x2536 <USART0_print>
     5a2:	85 e4       	ldi	r24, 0x45	; 69
     5a4:	93 e0       	ldi	r25, 0x03	; 3
     5a6:	0e 94 9b 12 	call	0x2536	; 0x2536 <USART0_print>
     5aa:	8e 01       	movw	r16, r28
     5ac:	0f 5f       	subi	r16, 0xFF	; 255
     5ae:	1f 4f       	sbci	r17, 0xFF	; 255
     5b0:	21 e0       	ldi	r18, 0x01	; 1
     5b2:	40 e0       	ldi	r20, 0x00	; 0
     5b4:	c7 01       	movw	r24, r14
     5b6:	b6 01       	movw	r22, r12
     5b8:	0e 94 38 17 	call	0x2e70	; 0x2e70 <dtostrf>
     5bc:	0e 94 9b 12 	call	0x2536	; 0x2536 <USART0_print>
     5c0:	81 e0       	ldi	r24, 0x01	; 1
     5c2:	98 12       	cpse	r9, r24
     5c4:	04 c0       	rjmp	.+8      	; 0x5ce <debug_printd+0x6c>
     5c6:	83 e0       	ldi	r24, 0x03	; 3
     5c8:	93 e0       	ldi	r25, 0x03	; 3
     5ca:	0e 94 9b 12 	call	0x2536	; 0x2536 <USART0_print>
     5ce:	64 96       	adiw	r28, 0x14	; 20
     5d0:	0f b6       	in	r0, 0x3f	; 63
     5d2:	f8 94       	cli
     5d4:	de bf       	out	0x3e, r29	; 62
     5d6:	0f be       	out	0x3f, r0	; 63
     5d8:	cd bf       	out	0x3d, r28	; 61
     5da:	df 91       	pop	r29
     5dc:	cf 91       	pop	r28
     5de:	1f 91       	pop	r17
     5e0:	0f 91       	pop	r16
     5e2:	ff 90       	pop	r15
     5e4:	ef 90       	pop	r14
     5e6:	df 90       	pop	r13
     5e8:	cf 90       	pop	r12
     5ea:	bf 90       	pop	r11
     5ec:	af 90       	pop	r10
     5ee:	9f 90       	pop	r9
     5f0:	08 95       	ret

000005f2 <debug_printu>:
     5f2:	ef 92       	push	r14
     5f4:	ff 92       	push	r15
     5f6:	0f 93       	push	r16
     5f8:	1f 93       	push	r17
     5fa:	cf 93       	push	r28
     5fc:	df 93       	push	r29
     5fe:	cd b7       	in	r28, 0x3d	; 61
     600:	de b7       	in	r29, 0x3e	; 62
     602:	65 97       	sbiw	r28, 0x15	; 21
     604:	0f b6       	in	r0, 0x3f	; 63
     606:	f8 94       	cli
     608:	de bf       	out	0x3e, r29	; 62
     60a:	0f be       	out	0x3f, r0	; 63
     60c:	cd bf       	out	0x3d, r28	; 61
     60e:	7b 01       	movw	r14, r22
     610:	8a 01       	movw	r16, r20
     612:	2d 8b       	std	Y+21, r18	; 0x15
     614:	0e 94 9b 12 	call	0x2536	; 0x2536 <USART0_print>
     618:	85 e4       	ldi	r24, 0x45	; 69
     61a:	93 e0       	ldi	r25, 0x03	; 3
     61c:	0e 94 9b 12 	call	0x2536	; 0x2536 <USART0_print>
     620:	c7 01       	movw	r24, r14
     622:	0e 94 9b 12 	call	0x2536	; 0x2536 <USART0_print>
     626:	85 e4       	ldi	r24, 0x45	; 69
     628:	93 e0       	ldi	r25, 0x03	; 3
     62a:	0e 94 9b 12 	call	0x2536	; 0x2536 <USART0_print>
     62e:	4a e0       	ldi	r20, 0x0A	; 10
     630:	be 01       	movw	r22, r28
     632:	6f 5f       	subi	r22, 0xFF	; 255
     634:	7f 4f       	sbci	r23, 0xFF	; 255
     636:	c8 01       	movw	r24, r16
     638:	0e 94 96 17 	call	0x2f2c	; 0x2f2c <__itoa_ncheck>
     63c:	0e 94 9b 12 	call	0x2536	; 0x2536 <USART0_print>
     640:	2d 89       	ldd	r18, Y+21	; 0x15
     642:	21 30       	cpi	r18, 0x01	; 1
     644:	21 f4       	brne	.+8      	; 0x64e <debug_printu+0x5c>
     646:	83 e0       	ldi	r24, 0x03	; 3
     648:	93 e0       	ldi	r25, 0x03	; 3
     64a:	0e 94 9b 12 	call	0x2536	; 0x2536 <USART0_print>
     64e:	65 96       	adiw	r28, 0x15	; 21
     650:	0f b6       	in	r0, 0x3f	; 63
     652:	f8 94       	cli
     654:	de bf       	out	0x3e, r29	; 62
     656:	0f be       	out	0x3f, r0	; 63
     658:	cd bf       	out	0x3d, r28	; 61
     65a:	df 91       	pop	r29
     65c:	cf 91       	pop	r28
     65e:	1f 91       	pop	r17
     660:	0f 91       	pop	r16
     662:	ff 90       	pop	r15
     664:	ef 90       	pop	r14
     666:	08 95       	ret

00000668 <debug_printl>:
     668:	af 92       	push	r10
     66a:	bf 92       	push	r11
     66c:	cf 92       	push	r12
     66e:	df 92       	push	r13
     670:	ef 92       	push	r14
     672:	ff 92       	push	r15
     674:	0f 93       	push	r16
     676:	cf 93       	push	r28
     678:	df 93       	push	r29
     67a:	cd b7       	in	r28, 0x3d	; 61
     67c:	de b7       	in	r29, 0x3e	; 62
     67e:	64 97       	sbiw	r28, 0x14	; 20
     680:	0f b6       	in	r0, 0x3f	; 63
     682:	f8 94       	cli
     684:	de bf       	out	0x3e, r29	; 62
     686:	0f be       	out	0x3f, r0	; 63
     688:	cd bf       	out	0x3d, r28	; 61
     68a:	5b 01       	movw	r10, r22
     68c:	69 01       	movw	r12, r18
     68e:	7a 01       	movw	r14, r20
     690:	0e 94 9b 12 	call	0x2536	; 0x2536 <USART0_print>
     694:	85 e4       	ldi	r24, 0x45	; 69
     696:	93 e0       	ldi	r25, 0x03	; 3
     698:	0e 94 9b 12 	call	0x2536	; 0x2536 <USART0_print>
     69c:	c5 01       	movw	r24, r10
     69e:	0e 94 9b 12 	call	0x2536	; 0x2536 <USART0_print>
     6a2:	85 e4       	ldi	r24, 0x45	; 69
     6a4:	93 e0       	ldi	r25, 0x03	; 3
     6a6:	0e 94 9b 12 	call	0x2536	; 0x2536 <USART0_print>
     6aa:	2a e0       	ldi	r18, 0x0A	; 10
     6ac:	ae 01       	movw	r20, r28
     6ae:	4f 5f       	subi	r20, 0xFF	; 255
     6b0:	5f 4f       	sbci	r21, 0xFF	; 255
     6b2:	c7 01       	movw	r24, r14
     6b4:	b6 01       	movw	r22, r12
     6b6:	0e 94 a1 17 	call	0x2f42	; 0x2f42 <__ltoa_ncheck>
     6ba:	0e 94 9b 12 	call	0x2536	; 0x2536 <USART0_print>
     6be:	01 30       	cpi	r16, 0x01	; 1
     6c0:	21 f4       	brne	.+8      	; 0x6ca <debug_printl+0x62>
     6c2:	83 e0       	ldi	r24, 0x03	; 3
     6c4:	93 e0       	ldi	r25, 0x03	; 3
     6c6:	0e 94 9b 12 	call	0x2536	; 0x2536 <USART0_print>
     6ca:	64 96       	adiw	r28, 0x14	; 20
     6cc:	0f b6       	in	r0, 0x3f	; 63
     6ce:	f8 94       	cli
     6d0:	de bf       	out	0x3e, r29	; 62
     6d2:	0f be       	out	0x3f, r0	; 63
     6d4:	cd bf       	out	0x3d, r28	; 61
     6d6:	df 91       	pop	r29
     6d8:	cf 91       	pop	r28
     6da:	0f 91       	pop	r16
     6dc:	ff 90       	pop	r15
     6de:	ef 90       	pop	r14
     6e0:	df 90       	pop	r13
     6e2:	cf 90       	pop	r12
     6e4:	bf 90       	pop	r11
     6e6:	af 90       	pop	r10
     6e8:	08 95       	ret

000006ea <ee_erase_logger>:
     6ea:	60 e0       	ldi	r22, 0x00	; 0
     6ec:	80 e0       	ldi	r24, 0x00	; 0
     6ee:	90 e0       	ldi	r25, 0x00	; 0
     6f0:	0e 94 08 18 	call	0x3010	; 0x3010 <__eeupd_byte_m2560>
     6f4:	60 e0       	ldi	r22, 0x00	; 0
     6f6:	70 e0       	ldi	r23, 0x00	; 0
     6f8:	81 e0       	ldi	r24, 0x01	; 1
     6fa:	90 e0       	ldi	r25, 0x00	; 0
     6fc:	0e 94 26 18 	call	0x304c	; 0x304c <__eeupd_word_m2560>
     700:	60 e0       	ldi	r22, 0x00	; 0
     702:	83 e0       	ldi	r24, 0x03	; 3
     704:	90 e0       	ldi	r25, 0x00	; 0
     706:	0e 94 08 18 	call	0x3010	; 0x3010 <__eeupd_byte_m2560>
     70a:	40 e0       	ldi	r20, 0x00	; 0
     70c:	50 e0       	ldi	r21, 0x00	; 0
     70e:	ba 01       	movw	r22, r20
     710:	80 e2       	ldi	r24, 0x20	; 32
     712:	90 e0       	ldi	r25, 0x00	; 0
     714:	0e 94 1a 18 	call	0x3034	; 0x3034 <__eeupd_dword_m2560>
     718:	40 e0       	ldi	r20, 0x00	; 0
     71a:	50 e0       	ldi	r21, 0x00	; 0
     71c:	ba 01       	movw	r22, r20
     71e:	84 e2       	ldi	r24, 0x24	; 36
     720:	90 e0       	ldi	r25, 0x00	; 0
     722:	0e 94 1a 18 	call	0x3034	; 0x3034 <__eeupd_dword_m2560>
     726:	60 e0       	ldi	r22, 0x00	; 0
     728:	80 e3       	ldi	r24, 0x30	; 48
     72a:	90 e0       	ldi	r25, 0x00	; 0
     72c:	0e 94 08 18 	call	0x3010	; 0x3010 <__eeupd_byte_m2560>
     730:	60 e0       	ldi	r22, 0x00	; 0
     732:	81 e3       	ldi	r24, 0x31	; 49
     734:	90 e0       	ldi	r25, 0x00	; 0
     736:	0e 94 08 18 	call	0x3010	; 0x3010 <__eeupd_byte_m2560>
     73a:	40 e0       	ldi	r20, 0x00	; 0
     73c:	50 e0       	ldi	r21, 0x00	; 0
     73e:	ba 01       	movw	r22, r20
     740:	80 e4       	ldi	r24, 0x40	; 64
     742:	90 e0       	ldi	r25, 0x00	; 0
     744:	0e 94 1a 18 	call	0x3034	; 0x3034 <__eeupd_dword_m2560>
     748:	40 e0       	ldi	r20, 0x00	; 0
     74a:	50 e0       	ldi	r21, 0x00	; 0
     74c:	ba 01       	movw	r22, r20
     74e:	85 e4       	ldi	r24, 0x45	; 69
     750:	90 e0       	ldi	r25, 0x00	; 0
     752:	0e 94 1a 18 	call	0x3034	; 0x3034 <__eeupd_dword_m2560>
     756:	40 e0       	ldi	r20, 0x00	; 0
     758:	50 e0       	ldi	r21, 0x00	; 0
     75a:	ba 01       	movw	r22, r20
     75c:	8a e4       	ldi	r24, 0x4A	; 74
     75e:	90 e0       	ldi	r25, 0x00	; 0
     760:	0e 94 1a 18 	call	0x3034	; 0x3034 <__eeupd_dword_m2560>
     764:	60 e0       	ldi	r22, 0x00	; 0
     766:	70 e0       	ldi	r23, 0x00	; 0
     768:	80 e5       	ldi	r24, 0x50	; 80
     76a:	90 e0       	ldi	r25, 0x00	; 0
     76c:	0c 94 26 18 	jmp	0x304c	; 0x304c <__eeupd_word_m2560>

00000770 <ee_write_logger>:
     770:	60 91 74 06 	lds	r22, 0x0674
     774:	80 e0       	ldi	r24, 0x00	; 0
     776:	90 e0       	ldi	r25, 0x00	; 0
     778:	0e 94 08 18 	call	0x3010	; 0x3010 <__eeupd_byte_m2560>
     77c:	60 91 76 06 	lds	r22, 0x0676
     780:	70 e0       	ldi	r23, 0x00	; 0
     782:	81 e0       	ldi	r24, 0x01	; 1
     784:	90 e0       	ldi	r25, 0x00	; 0
     786:	0e 94 26 18 	call	0x304c	; 0x304c <__eeupd_word_m2560>
     78a:	60 91 77 06 	lds	r22, 0x0677
     78e:	83 e0       	ldi	r24, 0x03	; 3
     790:	90 e0       	ldi	r25, 0x00	; 0
     792:	0e 94 08 18 	call	0x3010	; 0x3010 <__eeupd_byte_m2560>
     796:	40 91 a6 06 	lds	r20, 0x06A6
     79a:	50 91 a7 06 	lds	r21, 0x06A7
     79e:	60 91 a8 06 	lds	r22, 0x06A8
     7a2:	70 91 a9 06 	lds	r23, 0x06A9
     7a6:	80 e2       	ldi	r24, 0x20	; 32
     7a8:	90 e0       	ldi	r25, 0x00	; 0
     7aa:	0e 94 1a 18 	call	0x3034	; 0x3034 <__eeupd_dword_m2560>
     7ae:	40 91 aa 06 	lds	r20, 0x06AA
     7b2:	50 91 ab 06 	lds	r21, 0x06AB
     7b6:	60 91 ac 06 	lds	r22, 0x06AC
     7ba:	70 91 ad 06 	lds	r23, 0x06AD
     7be:	84 e2       	ldi	r24, 0x24	; 36
     7c0:	90 e0       	ldi	r25, 0x00	; 0
     7c2:	0e 94 1a 18 	call	0x3034	; 0x3034 <__eeupd_dword_m2560>
     7c6:	60 91 cc 06 	lds	r22, 0x06CC
     7ca:	80 e3       	ldi	r24, 0x30	; 48
     7cc:	90 e0       	ldi	r25, 0x00	; 0
     7ce:	0e 94 08 18 	call	0x3010	; 0x3010 <__eeupd_byte_m2560>
     7d2:	60 91 ce 06 	lds	r22, 0x06CE
     7d6:	81 e3       	ldi	r24, 0x31	; 49
     7d8:	90 e0       	ldi	r25, 0x00	; 0
     7da:	0e 94 08 18 	call	0x3010	; 0x3010 <__eeupd_byte_m2560>
     7de:	40 91 d0 06 	lds	r20, 0x06D0
     7e2:	50 91 d1 06 	lds	r21, 0x06D1
     7e6:	60 91 d2 06 	lds	r22, 0x06D2
     7ea:	70 91 d3 06 	lds	r23, 0x06D3
     7ee:	80 e4       	ldi	r24, 0x40	; 64
     7f0:	90 e0       	ldi	r25, 0x00	; 0
     7f2:	0e 94 1a 18 	call	0x3034	; 0x3034 <__eeupd_dword_m2560>
     7f6:	40 91 d4 06 	lds	r20, 0x06D4
     7fa:	50 91 d5 06 	lds	r21, 0x06D5
     7fe:	60 91 d6 06 	lds	r22, 0x06D6
     802:	70 91 d7 06 	lds	r23, 0x06D7
     806:	85 e4       	ldi	r24, 0x45	; 69
     808:	90 e0       	ldi	r25, 0x00	; 0
     80a:	0e 94 1a 18 	call	0x3034	; 0x3034 <__eeupd_dword_m2560>
     80e:	40 91 d8 06 	lds	r20, 0x06D8
     812:	50 91 d9 06 	lds	r21, 0x06D9
     816:	60 91 da 06 	lds	r22, 0x06DA
     81a:	70 91 db 06 	lds	r23, 0x06DB
     81e:	8a e4       	ldi	r24, 0x4A	; 74
     820:	90 e0       	ldi	r25, 0x00	; 0
     822:	0e 94 1a 18 	call	0x3034	; 0x3034 <__eeupd_dword_m2560>
     826:	60 91 ba 06 	lds	r22, 0x06BA
     82a:	70 91 bb 06 	lds	r23, 0x06BB
     82e:	80 e5       	ldi	r24, 0x50	; 80
     830:	90 e0       	ldi	r25, 0x00	; 0
     832:	0c 94 26 18 	jmp	0x304c	; 0x304c <__eeupd_word_m2560>

00000836 <ee_read_logger>:
     836:	80 e0       	ldi	r24, 0x00	; 0
     838:	90 e0       	ldi	r25, 0x00	; 0
     83a:	0e 94 f4 17 	call	0x2fe8	; 0x2fe8 <__eerd_byte_m2560>
     83e:	80 93 74 06 	sts	0x0674, r24
     842:	81 e0       	ldi	r24, 0x01	; 1
     844:	90 e0       	ldi	r25, 0x00	; 0
     846:	0e 94 02 18 	call	0x3004	; 0x3004 <__eerd_word_m2560>
     84a:	80 93 76 06 	sts	0x0676, r24
     84e:	83 e0       	ldi	r24, 0x03	; 3
     850:	90 e0       	ldi	r25, 0x00	; 0
     852:	0e 94 f4 17 	call	0x2fe8	; 0x2fe8 <__eerd_byte_m2560>
     856:	80 93 77 06 	sts	0x0677, r24
     85a:	80 e2       	ldi	r24, 0x20	; 32
     85c:	90 e0       	ldi	r25, 0x00	; 0
     85e:	0e 94 fc 17 	call	0x2ff8	; 0x2ff8 <__eerd_dword_m2560>
     862:	60 93 a6 06 	sts	0x06A6, r22
     866:	70 93 a7 06 	sts	0x06A7, r23
     86a:	80 93 a8 06 	sts	0x06A8, r24
     86e:	90 93 a9 06 	sts	0x06A9, r25
     872:	84 e2       	ldi	r24, 0x24	; 36
     874:	90 e0       	ldi	r25, 0x00	; 0
     876:	0e 94 fc 17 	call	0x2ff8	; 0x2ff8 <__eerd_dword_m2560>
     87a:	60 93 aa 06 	sts	0x06AA, r22
     87e:	70 93 ab 06 	sts	0x06AB, r23
     882:	80 93 ac 06 	sts	0x06AC, r24
     886:	90 93 ad 06 	sts	0x06AD, r25
     88a:	80 e3       	ldi	r24, 0x30	; 48
     88c:	90 e0       	ldi	r25, 0x00	; 0
     88e:	0e 94 f4 17 	call	0x2fe8	; 0x2fe8 <__eerd_byte_m2560>
     892:	90 e0       	ldi	r25, 0x00	; 0
     894:	90 93 cd 06 	sts	0x06CD, r25
     898:	80 93 cc 06 	sts	0x06CC, r24
     89c:	81 e3       	ldi	r24, 0x31	; 49
     89e:	90 e0       	ldi	r25, 0x00	; 0
     8a0:	0e 94 f4 17 	call	0x2fe8	; 0x2fe8 <__eerd_byte_m2560>
     8a4:	90 e0       	ldi	r25, 0x00	; 0
     8a6:	90 93 cf 06 	sts	0x06CF, r25
     8aa:	80 93 ce 06 	sts	0x06CE, r24
     8ae:	80 e4       	ldi	r24, 0x40	; 64
     8b0:	90 e0       	ldi	r25, 0x00	; 0
     8b2:	0e 94 fc 17 	call	0x2ff8	; 0x2ff8 <__eerd_dword_m2560>
     8b6:	60 93 d0 06 	sts	0x06D0, r22
     8ba:	70 93 d1 06 	sts	0x06D1, r23
     8be:	80 93 d2 06 	sts	0x06D2, r24
     8c2:	90 93 d3 06 	sts	0x06D3, r25
     8c6:	85 e4       	ldi	r24, 0x45	; 69
     8c8:	90 e0       	ldi	r25, 0x00	; 0
     8ca:	0e 94 fc 17 	call	0x2ff8	; 0x2ff8 <__eerd_dword_m2560>
     8ce:	60 93 d4 06 	sts	0x06D4, r22
     8d2:	70 93 d5 06 	sts	0x06D5, r23
     8d6:	80 93 d6 06 	sts	0x06D6, r24
     8da:	90 93 d7 06 	sts	0x06D7, r25
     8de:	8a e4       	ldi	r24, 0x4A	; 74
     8e0:	90 e0       	ldi	r25, 0x00	; 0
     8e2:	0e 94 fc 17 	call	0x2ff8	; 0x2ff8 <__eerd_dword_m2560>
     8e6:	60 93 d8 06 	sts	0x06D8, r22
     8ea:	70 93 d9 06 	sts	0x06D9, r23
     8ee:	80 93 da 06 	sts	0x06DA, r24
     8f2:	90 93 db 06 	sts	0x06DB, r25
     8f6:	80 e5       	ldi	r24, 0x50	; 80
     8f8:	90 e0       	ldi	r25, 0x00	; 0
     8fa:	0e 94 02 18 	call	0x3004	; 0x3004 <__eerd_word_m2560>
     8fe:	90 93 bb 06 	sts	0x06BB, r25
     902:	80 93 ba 06 	sts	0x06BA, r24
     906:	08 95       	ret

00000908 <serialprint>:
     908:	0f 93       	push	r16
     90a:	1f 93       	push	r17
     90c:	cf 93       	push	r28
     90e:	df 93       	push	r29
     910:	cd b7       	in	r28, 0x3d	; 61
     912:	de b7       	in	r29, 0x3e	; 62
     914:	2c 97       	sbiw	r28, 0x0c	; 12
     916:	0f b6       	in	r0, 0x3f	; 63
     918:	f8 94       	cli
     91a:	de bf       	out	0x3e, r29	; 62
     91c:	0f be       	out	0x3f, r0	; 63
     91e:	cd bf       	out	0x3d, r28	; 61
     920:	60 91 86 06 	lds	r22, 0x0686
     924:	70 91 87 06 	lds	r23, 0x0687
     928:	80 91 88 06 	lds	r24, 0x0688
     92c:	90 91 89 06 	lds	r25, 0x0689
     930:	8e 01       	movw	r16, r28
     932:	0f 5f       	subi	r16, 0xFF	; 255
     934:	1f 4f       	sbci	r17, 0xFF	; 255
     936:	23 e0       	ldi	r18, 0x03	; 3
     938:	40 e0       	ldi	r20, 0x00	; 0
     93a:	0e 94 38 17 	call	0x2e70	; 0x2e70 <dtostrf>
     93e:	0e 94 9b 12 	call	0x2536	; 0x2536 <USART0_print>
     942:	8f ee       	ldi	r24, 0xEF	; 239
     944:	92 e0       	ldi	r25, 0x02	; 2
     946:	0e 94 9b 12 	call	0x2536	; 0x2536 <USART0_print>
     94a:	60 91 8a 06 	lds	r22, 0x068A
     94e:	70 91 8b 06 	lds	r23, 0x068B
     952:	80 91 8c 06 	lds	r24, 0x068C
     956:	90 91 8d 06 	lds	r25, 0x068D
     95a:	23 e0       	ldi	r18, 0x03	; 3
     95c:	40 e0       	ldi	r20, 0x00	; 0
     95e:	0e 94 38 17 	call	0x2e70	; 0x2e70 <dtostrf>
     962:	0e 94 9b 12 	call	0x2536	; 0x2536 <USART0_print>
     966:	8f ee       	ldi	r24, 0xEF	; 239
     968:	92 e0       	ldi	r25, 0x02	; 2
     96a:	0e 94 9b 12 	call	0x2536	; 0x2536 <USART0_print>
     96e:	60 91 8e 06 	lds	r22, 0x068E
     972:	70 91 8f 06 	lds	r23, 0x068F
     976:	80 91 90 06 	lds	r24, 0x0690
     97a:	90 91 91 06 	lds	r25, 0x0691
     97e:	23 e0       	ldi	r18, 0x03	; 3
     980:	40 e0       	ldi	r20, 0x00	; 0
     982:	0e 94 38 17 	call	0x2e70	; 0x2e70 <dtostrf>
     986:	0e 94 9b 12 	call	0x2536	; 0x2536 <USART0_print>
     98a:	8f ee       	ldi	r24, 0xEF	; 239
     98c:	92 e0       	ldi	r25, 0x02	; 2
     98e:	0e 94 9b 12 	call	0x2536	; 0x2536 <USART0_print>
     992:	60 91 92 06 	lds	r22, 0x0692
     996:	70 91 93 06 	lds	r23, 0x0693
     99a:	80 91 94 06 	lds	r24, 0x0694
     99e:	90 91 95 06 	lds	r25, 0x0695
     9a2:	23 e0       	ldi	r18, 0x03	; 3
     9a4:	40 e0       	ldi	r20, 0x00	; 0
     9a6:	0e 94 38 17 	call	0x2e70	; 0x2e70 <dtostrf>
     9aa:	0e 94 9b 12 	call	0x2536	; 0x2536 <USART0_print>
     9ae:	8f ee       	ldi	r24, 0xEF	; 239
     9b0:	92 e0       	ldi	r25, 0x02	; 2
     9b2:	0e 94 9b 12 	call	0x2536	; 0x2536 <USART0_print>
     9b6:	60 91 96 06 	lds	r22, 0x0696
     9ba:	70 91 97 06 	lds	r23, 0x0697
     9be:	80 91 98 06 	lds	r24, 0x0698
     9c2:	90 91 99 06 	lds	r25, 0x0699
     9c6:	23 e0       	ldi	r18, 0x03	; 3
     9c8:	40 e0       	ldi	r20, 0x00	; 0
     9ca:	0e 94 38 17 	call	0x2e70	; 0x2e70 <dtostrf>
     9ce:	0e 94 9b 12 	call	0x2536	; 0x2536 <USART0_print>
     9d2:	83 e0       	ldi	r24, 0x03	; 3
     9d4:	93 e0       	ldi	r25, 0x03	; 3
     9d6:	0e 94 9b 12 	call	0x2536	; 0x2536 <USART0_print>
     9da:	2f ef       	ldi	r18, 0xFF	; 255
     9dc:	81 ee       	ldi	r24, 0xE1	; 225
     9de:	94 e0       	ldi	r25, 0x04	; 4
     9e0:	21 50       	subi	r18, 0x01	; 1
     9e2:	80 40       	sbci	r24, 0x00	; 0
     9e4:	90 40       	sbci	r25, 0x00	; 0
     9e6:	e1 f7       	brne	.-8      	; 0x9e0 <serialprint+0xd8>
     9e8:	00 c0       	rjmp	.+0      	; 0x9ea <serialprint+0xe2>
     9ea:	00 00       	nop
     9ec:	2c 96       	adiw	r28, 0x0c	; 12
     9ee:	0f b6       	in	r0, 0x3f	; 63
     9f0:	f8 94       	cli
     9f2:	de bf       	out	0x3e, r29	; 62
     9f4:	0f be       	out	0x3f, r0	; 63
     9f6:	cd bf       	out	0x3d, r28	; 61
     9f8:	df 91       	pop	r29
     9fa:	cf 91       	pop	r28
     9fc:	1f 91       	pop	r17
     9fe:	0f 91       	pop	r16
     a00:	08 95       	ret

00000a02 <readVcc>:
     a02:	8e e5       	ldi	r24, 0x5E	; 94
     a04:	80 93 7c 00 	sts	0x007C, r24
     a08:	80 91 7b 00 	lds	r24, 0x007B
     a0c:	87 7f       	andi	r24, 0xF7	; 247
     a0e:	80 93 7b 00 	sts	0x007B, r24
     a12:	8f e3       	ldi	r24, 0x3F	; 63
     a14:	9f e1       	ldi	r25, 0x1F	; 31
     a16:	01 97       	sbiw	r24, 0x01	; 1
     a18:	f1 f7       	brne	.-4      	; 0xa16 <readVcc+0x14>
     a1a:	00 c0       	rjmp	.+0      	; 0xa1c <readVcc+0x1a>
     a1c:	00 00       	nop
     a1e:	80 91 7a 00 	lds	r24, 0x007A
     a22:	80 64       	ori	r24, 0x40	; 64
     a24:	80 93 7a 00 	sts	0x007A, r24
     a28:	80 91 7a 00 	lds	r24, 0x007A
     a2c:	86 fd       	sbrc	r24, 6
     a2e:	fc cf       	rjmp	.-8      	; 0xa28 <readVcc+0x26>
     a30:	80 91 78 00 	lds	r24, 0x0078
     a34:	20 91 79 00 	lds	r18, 0x0079
     a38:	30 e0       	ldi	r19, 0x00	; 0
     a3a:	32 2f       	mov	r19, r18
     a3c:	22 27       	eor	r18, r18
     a3e:	44 27       	eor	r20, r20
     a40:	37 fd       	sbrc	r19, 7
     a42:	40 95       	com	r20
     a44:	54 2f       	mov	r21, r20
     a46:	28 2b       	or	r18, r24
     a48:	60 e0       	ldi	r22, 0x00	; 0
     a4a:	70 e3       	ldi	r23, 0x30	; 48
     a4c:	81 e1       	ldi	r24, 0x11	; 17
     a4e:	90 e0       	ldi	r25, 0x00	; 0
     a50:	0e 94 85 14 	call	0x290a	; 0x290a <__divmodsi4>
     a54:	ca 01       	movw	r24, r20
     a56:	b9 01       	movw	r22, r18
     a58:	08 95       	ret

00000a5a <calcVI>:
     a5a:	2f 92       	push	r2
     a5c:	3f 92       	push	r3
     a5e:	4f 92       	push	r4
     a60:	5f 92       	push	r5
     a62:	6f 92       	push	r6
     a64:	7f 92       	push	r7
     a66:	8f 92       	push	r8
     a68:	9f 92       	push	r9
     a6a:	af 92       	push	r10
     a6c:	bf 92       	push	r11
     a6e:	cf 92       	push	r12
     a70:	df 92       	push	r13
     a72:	ef 92       	push	r14
     a74:	ff 92       	push	r15
     a76:	0f 93       	push	r16
     a78:	1f 93       	push	r17
     a7a:	cf 93       	push	r28
     a7c:	df 93       	push	r29
     a7e:	cd b7       	in	r28, 0x3d	; 61
     a80:	de b7       	in	r29, 0x3e	; 62
     a82:	60 97       	sbiw	r28, 0x10	; 16
     a84:	0f b6       	in	r0, 0x3f	; 63
     a86:	f8 94       	cli
     a88:	de bf       	out	0x3e, r29	; 62
     a8a:	0f be       	out	0x3f, r0	; 63
     a8c:	cd bf       	out	0x3d, r28	; 61
     a8e:	9e 87       	std	Y+14, r25	; 0x0e
     a90:	8d 87       	std	Y+13, r24	; 0x0d
     a92:	8b 01       	movw	r16, r22
     a94:	0e 94 01 05 	call	0xa02	; 0xa02 <readVcc>
     a98:	69 87       	std	Y+9, r22	; 0x09
     a9a:	7a 87       	std	Y+10, r23	; 0x0a
     a9c:	8b 87       	std	Y+11, r24	; 0x0b
     a9e:	9c 87       	std	Y+12, r25	; 0x0c
     aa0:	0e 94 cd 10 	call	0x219a	; 0x219a <init_millis>
     aa4:	c0 90 72 06 	lds	r12, 0x0672
     aa8:	d0 90 73 06 	lds	r13, 0x0673
     aac:	e1 2c       	mov	r14, r1
     aae:	f1 2c       	mov	r15, r1
     ab0:	98 01       	movw	r18, r16
     ab2:	40 e0       	ldi	r20, 0x00	; 0
     ab4:	50 e0       	ldi	r21, 0x00	; 0
     ab6:	2d 83       	std	Y+5, r18	; 0x05
     ab8:	3e 83       	std	Y+6, r19	; 0x06
     aba:	4f 83       	std	Y+7, r20	; 0x07
     abc:	58 87       	std	Y+8, r21	; 0x08
     abe:	80 91 cc 06 	lds	r24, 0x06CC
     ac2:	0e 94 81 01 	call	0x302	; 0x302 <adc_value>
     ac6:	90 93 03 07 	sts	0x0703, r25
     aca:	80 93 02 07 	sts	0x0702, r24
     ace:	bc 01       	movw	r22, r24
     ad0:	88 27       	eor	r24, r24
     ad2:	77 fd       	sbrc	r23, 7
     ad4:	80 95       	com	r24
     ad6:	98 2f       	mov	r25, r24
     ad8:	0e 94 ca 15 	call	0x2b94	; 0x2b94 <__floatsisf>
     adc:	4b 01       	movw	r8, r22
     ade:	5c 01       	movw	r10, r24
     ae0:	2d ec       	ldi	r18, 0xCD	; 205
     ae2:	3c ec       	ldi	r19, 0xCC	; 204
     ae4:	4c e0       	ldi	r20, 0x0C	; 12
     ae6:	54 e4       	ldi	r21, 0x44	; 68
     ae8:	0e 94 30 15 	call	0x2a60	; 0x2a60 <__cmpsf2>
     aec:	87 ff       	sbrs	r24, 7
     aee:	0b c0       	rjmp	.+22     	; 0xb06 <calcVI+0xac>
     af0:	11 e0       	ldi	r17, 0x01	; 1
     af2:	26 e6       	ldi	r18, 0x66	; 102
     af4:	36 e6       	ldi	r19, 0x66	; 102
     af6:	46 ee       	ldi	r20, 0xE6	; 230
     af8:	53 e4       	ldi	r21, 0x43	; 67
     afa:	c5 01       	movw	r24, r10
     afc:	b4 01       	movw	r22, r8
     afe:	0e 94 7a 16 	call	0x2cf4	; 0x2cf4 <__gesf2>
     b02:	18 16       	cp	r1, r24
     b04:	0c f0       	brlt	.+2      	; 0xb08 <calcVI+0xae>
     b06:	10 e0       	ldi	r17, 0x00	; 0
     b08:	80 91 72 06 	lds	r24, 0x0672
     b0c:	90 91 73 06 	lds	r25, 0x0673
     b10:	9c 01       	movw	r18, r24
     b12:	40 e0       	ldi	r20, 0x00	; 0
     b14:	50 e0       	ldi	r21, 0x00	; 0
     b16:	29 83       	std	Y+1, r18	; 0x01
     b18:	3a 83       	std	Y+2, r19	; 0x02
     b1a:	4b 83       	std	Y+3, r20	; 0x03
     b1c:	5c 83       	std	Y+4, r21	; 0x04
     b1e:	da 01       	movw	r26, r20
     b20:	c9 01       	movw	r24, r18
     b22:	8c 19       	sub	r24, r12
     b24:	9d 09       	sbc	r25, r13
     b26:	ae 09       	sbc	r26, r14
     b28:	bf 09       	sbc	r27, r15
     b2a:	2d 81       	ldd	r18, Y+5	; 0x05
     b2c:	3e 81       	ldd	r19, Y+6	; 0x06
     b2e:	4f 81       	ldd	r20, Y+7	; 0x07
     b30:	58 85       	ldd	r21, Y+8	; 0x08
     b32:	28 17       	cp	r18, r24
     b34:	39 07       	cpc	r19, r25
     b36:	4a 07       	cpc	r20, r26
     b38:	5b 07       	cpc	r21, r27
     b3a:	28 f4       	brcc	.+10     	; 0xb46 <calcVI+0xec>
     b3c:	18 8a       	std	Y+16, r1	; 0x10
     b3e:	1f 86       	std	Y+15, r1	; 0x0f
     b40:	00 e0       	ldi	r16, 0x00	; 0
     b42:	10 e0       	ldi	r17, 0x00	; 0
     b44:	60 c1       	rjmp	.+704    	; 0xe06 <calcVI+0x3ac>
     b46:	11 23       	and	r17, r17
     b48:	09 f4       	brne	.+2      	; 0xb4c <calcVI+0xf2>
     b4a:	b9 cf       	rjmp	.-142    	; 0xabe <calcVI+0x64>
     b4c:	f7 cf       	rjmp	.-18     	; 0xb3c <calcVI+0xe2>
     b4e:	80 91 72 06 	lds	r24, 0x0672
     b52:	90 91 73 06 	lds	r25, 0x0673
     b56:	a0 e0       	ldi	r26, 0x00	; 0
     b58:	b0 e0       	ldi	r27, 0x00	; 0
     b5a:	29 81       	ldd	r18, Y+1	; 0x01
     b5c:	3a 81       	ldd	r19, Y+2	; 0x02
     b5e:	4b 81       	ldd	r20, Y+3	; 0x03
     b60:	5c 81       	ldd	r21, Y+4	; 0x04
     b62:	82 1b       	sub	r24, r18
     b64:	93 0b       	sbc	r25, r19
     b66:	a4 0b       	sbc	r26, r20
     b68:	b5 0b       	sbc	r27, r21
     b6a:	2d 81       	ldd	r18, Y+5	; 0x05
     b6c:	3e 81       	ldd	r19, Y+6	; 0x06
     b6e:	4f 81       	ldd	r20, Y+7	; 0x07
     b70:	58 85       	ldd	r21, Y+8	; 0x08
     b72:	82 17       	cp	r24, r18
     b74:	93 07       	cpc	r25, r19
     b76:	a4 07       	cpc	r26, r20
     b78:	b5 07       	cpc	r27, r21
     b7a:	08 f0       	brcs	.+2      	; 0xb7e <calcVI+0x124>
     b7c:	4a c1       	rjmp	.+660    	; 0xe12 <calcVI+0x3b8>
     b7e:	4f 85       	ldd	r20, Y+15	; 0x0f
     b80:	58 89       	ldd	r21, Y+16	; 0x10
     b82:	4f 5f       	subi	r20, 0xFF	; 255
     b84:	5f 4f       	sbci	r21, 0xFF	; 255
     b86:	58 8b       	std	Y+16, r21	; 0x10
     b88:	4f 87       	std	Y+15, r20	; 0x0f
     b8a:	80 91 0c 07 	lds	r24, 0x070C
     b8e:	90 91 0d 07 	lds	r25, 0x070D
     b92:	a0 91 0e 07 	lds	r26, 0x070E
     b96:	b0 91 0f 07 	lds	r27, 0x070F
     b9a:	80 93 10 07 	sts	0x0710, r24
     b9e:	90 93 11 07 	sts	0x0711, r25
     ba2:	a0 93 12 07 	sts	0x0712, r26
     ba6:	b0 93 13 07 	sts	0x0713, r27
     baa:	80 91 cc 06 	lds	r24, 0x06CC
     bae:	0e 94 81 01 	call	0x302	; 0x302 <adc_value>
     bb2:	90 93 f9 06 	sts	0x06F9, r25
     bb6:	80 93 f8 06 	sts	0x06F8, r24
     bba:	80 91 ce 06 	lds	r24, 0x06CE
     bbe:	0e 94 81 01 	call	0x302	; 0x302 <adc_value>
     bc2:	3c 01       	movw	r6, r24
     bc4:	90 93 16 07 	sts	0x0716, r25
     bc8:	80 93 15 07 	sts	0x0715, r24
     bcc:	20 90 f8 06 	lds	r2, 0x06F8
     bd0:	30 90 f9 06 	lds	r3, 0x06F9
     bd4:	b1 01       	movw	r22, r2
     bd6:	88 27       	eor	r24, r24
     bd8:	77 fd       	sbrc	r23, 7
     bda:	80 95       	com	r24
     bdc:	98 2f       	mov	r25, r24
     bde:	0e 94 ca 15 	call	0x2b94	; 0x2b94 <__floatsisf>
     be2:	6b 01       	movw	r12, r22
     be4:	7c 01       	movw	r14, r24
     be6:	80 90 1f 07 	lds	r8, 0x071F
     bea:	90 90 20 07 	lds	r9, 0x0720
     bee:	a0 90 21 07 	lds	r10, 0x0721
     bf2:	b0 90 22 07 	lds	r11, 0x0722
     bf6:	a5 01       	movw	r20, r10
     bf8:	94 01       	movw	r18, r8
     bfa:	0e 94 cb 14 	call	0x2996	; 0x2996 <__subsf3>
     bfe:	20 e0       	ldi	r18, 0x00	; 0
     c00:	30 e0       	ldi	r19, 0x00	; 0
     c02:	40 e8       	ldi	r20, 0x80	; 128
     c04:	5a e3       	ldi	r21, 0x3A	; 58
     c06:	0e 94 7e 16 	call	0x2cfc	; 0x2cfc <__mulsf3>
     c0a:	9b 01       	movw	r18, r22
     c0c:	ac 01       	movw	r20, r24
     c0e:	c5 01       	movw	r24, r10
     c10:	b4 01       	movw	r22, r8
     c12:	0e 94 cc 14 	call	0x2998	; 0x2998 <__addsf3>
     c16:	9b 01       	movw	r18, r22
     c18:	ac 01       	movw	r20, r24
     c1a:	60 93 1f 07 	sts	0x071F, r22
     c1e:	70 93 20 07 	sts	0x0720, r23
     c22:	80 93 21 07 	sts	0x0721, r24
     c26:	90 93 22 07 	sts	0x0722, r25
     c2a:	c7 01       	movw	r24, r14
     c2c:	b6 01       	movw	r22, r12
     c2e:	0e 94 cb 14 	call	0x2996	; 0x2996 <__subsf3>
     c32:	4b 01       	movw	r8, r22
     c34:	5c 01       	movw	r10, r24
     c36:	60 93 0c 07 	sts	0x070C, r22
     c3a:	70 93 0d 07 	sts	0x070D, r23
     c3e:	80 93 0e 07 	sts	0x070E, r24
     c42:	90 93 0f 07 	sts	0x070F, r25
     c46:	b3 01       	movw	r22, r6
     c48:	88 27       	eor	r24, r24
     c4a:	77 fd       	sbrc	r23, 7
     c4c:	80 95       	com	r24
     c4e:	98 2f       	mov	r25, r24
     c50:	0e 94 ca 15 	call	0x2b94	; 0x2b94 <__floatsisf>
     c54:	6b 01       	movw	r12, r22
     c56:	7c 01       	movw	r14, r24
     c58:	40 90 fa 06 	lds	r4, 0x06FA
     c5c:	50 90 fb 06 	lds	r5, 0x06FB
     c60:	60 90 fc 06 	lds	r6, 0x06FC
     c64:	70 90 fd 06 	lds	r7, 0x06FD
     c68:	a3 01       	movw	r20, r6
     c6a:	92 01       	movw	r18, r4
     c6c:	0e 94 cb 14 	call	0x2996	; 0x2996 <__subsf3>
     c70:	20 e0       	ldi	r18, 0x00	; 0
     c72:	30 e0       	ldi	r19, 0x00	; 0
     c74:	40 e8       	ldi	r20, 0x80	; 128
     c76:	5a e3       	ldi	r21, 0x3A	; 58
     c78:	0e 94 7e 16 	call	0x2cfc	; 0x2cfc <__mulsf3>
     c7c:	9b 01       	movw	r18, r22
     c7e:	ac 01       	movw	r20, r24
     c80:	c3 01       	movw	r24, r6
     c82:	b2 01       	movw	r22, r4
     c84:	0e 94 cc 14 	call	0x2998	; 0x2998 <__addsf3>
     c88:	9b 01       	movw	r18, r22
     c8a:	ac 01       	movw	r20, r24
     c8c:	60 93 fa 06 	sts	0x06FA, r22
     c90:	70 93 fb 06 	sts	0x06FB, r23
     c94:	80 93 fc 06 	sts	0x06FC, r24
     c98:	90 93 fd 06 	sts	0x06FD, r25
     c9c:	c7 01       	movw	r24, r14
     c9e:	b6 01       	movw	r22, r12
     ca0:	0e 94 cb 14 	call	0x2996	; 0x2996 <__subsf3>
     ca4:	6b 01       	movw	r12, r22
     ca6:	7c 01       	movw	r14, r24
     ca8:	60 93 04 07 	sts	0x0704, r22
     cac:	70 93 05 07 	sts	0x0705, r23
     cb0:	80 93 06 07 	sts	0x0706, r24
     cb4:	90 93 07 07 	sts	0x0707, r25
     cb8:	a5 01       	movw	r20, r10
     cba:	94 01       	movw	r18, r8
     cbc:	c5 01       	movw	r24, r10
     cbe:	b4 01       	movw	r22, r8
     cc0:	0e 94 7e 16 	call	0x2cfc	; 0x2cfc <__mulsf3>
     cc4:	9b 01       	movw	r18, r22
     cc6:	ac 01       	movw	r20, r24
     cc8:	60 93 23 07 	sts	0x0723, r22
     ccc:	70 93 24 07 	sts	0x0724, r23
     cd0:	80 93 25 07 	sts	0x0725, r24
     cd4:	90 93 26 07 	sts	0x0726, r25
     cd8:	60 91 08 07 	lds	r22, 0x0708
     cdc:	70 91 09 07 	lds	r23, 0x0709
     ce0:	80 91 0a 07 	lds	r24, 0x070A
     ce4:	90 91 0b 07 	lds	r25, 0x070B
     ce8:	0e 94 cc 14 	call	0x2998	; 0x2998 <__addsf3>
     cec:	60 93 08 07 	sts	0x0708, r22
     cf0:	70 93 09 07 	sts	0x0709, r23
     cf4:	80 93 0a 07 	sts	0x070A, r24
     cf8:	90 93 0b 07 	sts	0x070B, r25
     cfc:	a7 01       	movw	r20, r14
     cfe:	96 01       	movw	r18, r12
     d00:	c7 01       	movw	r24, r14
     d02:	b6 01       	movw	r22, r12
     d04:	0e 94 7e 16 	call	0x2cfc	; 0x2cfc <__mulsf3>
     d08:	9b 01       	movw	r18, r22
     d0a:	ac 01       	movw	r20, r24
     d0c:	60 93 1b 07 	sts	0x071B, r22
     d10:	70 93 1c 07 	sts	0x071C, r23
     d14:	80 93 1d 07 	sts	0x071D, r24
     d18:	90 93 1e 07 	sts	0x071E, r25
     d1c:	60 91 17 07 	lds	r22, 0x0717
     d20:	70 91 18 07 	lds	r23, 0x0718
     d24:	80 91 19 07 	lds	r24, 0x0719
     d28:	90 91 1a 07 	lds	r25, 0x071A
     d2c:	0e 94 cc 14 	call	0x2998	; 0x2998 <__addsf3>
     d30:	60 93 17 07 	sts	0x0717, r22
     d34:	70 93 18 07 	sts	0x0718, r23
     d38:	80 93 19 07 	sts	0x0719, r24
     d3c:	90 93 1a 07 	sts	0x071A, r25
     d40:	40 90 10 07 	lds	r4, 0x0710
     d44:	50 90 11 07 	lds	r5, 0x0711
     d48:	60 90 12 07 	lds	r6, 0x0712
     d4c:	70 90 13 07 	lds	r7, 0x0713
     d50:	a3 01       	movw	r20, r6
     d52:	92 01       	movw	r18, r4
     d54:	c5 01       	movw	r24, r10
     d56:	b4 01       	movw	r22, r8
     d58:	0e 94 cb 14 	call	0x2996	; 0x2996 <__subsf3>
     d5c:	20 91 d8 06 	lds	r18, 0x06D8
     d60:	30 91 d9 06 	lds	r19, 0x06D9
     d64:	40 91 da 06 	lds	r20, 0x06DA
     d68:	50 91 db 06 	lds	r21, 0x06DB
     d6c:	0e 94 7e 16 	call	0x2cfc	; 0x2cfc <__mulsf3>
     d70:	9b 01       	movw	r18, r22
     d72:	ac 01       	movw	r20, r24
     d74:	c3 01       	movw	r24, r6
     d76:	b2 01       	movw	r22, r4
     d78:	0e 94 cc 14 	call	0x2998	; 0x2998 <__addsf3>
     d7c:	60 93 fe 06 	sts	0x06FE, r22
     d80:	70 93 ff 06 	sts	0x06FF, r23
     d84:	80 93 00 07 	sts	0x0700, r24
     d88:	90 93 01 07 	sts	0x0701, r25
     d8c:	a7 01       	movw	r20, r14
     d8e:	96 01       	movw	r18, r12
     d90:	0e 94 7e 16 	call	0x2cfc	; 0x2cfc <__mulsf3>
     d94:	9b 01       	movw	r18, r22
     d96:	ac 01       	movw	r20, r24
     d98:	60 93 27 07 	sts	0x0727, r22
     d9c:	70 93 28 07 	sts	0x0728, r23
     da0:	80 93 29 07 	sts	0x0729, r24
     da4:	90 93 2a 07 	sts	0x072A, r25
     da8:	60 91 f3 06 	lds	r22, 0x06F3
     dac:	70 91 f4 06 	lds	r23, 0x06F4
     db0:	80 91 f5 06 	lds	r24, 0x06F5
     db4:	90 91 f6 06 	lds	r25, 0x06F6
     db8:	0e 94 cc 14 	call	0x2998	; 0x2998 <__addsf3>
     dbc:	60 93 f3 06 	sts	0x06F3, r22
     dc0:	70 93 f4 06 	sts	0x06F4, r23
     dc4:	80 93 f5 06 	sts	0x06F5, r24
     dc8:	90 93 f6 06 	sts	0x06F6, r25
     dcc:	80 91 14 07 	lds	r24, 0x0714
     dd0:	80 93 f7 06 	sts	0x06F7, r24
     dd4:	80 91 02 07 	lds	r24, 0x0702
     dd8:	90 91 03 07 	lds	r25, 0x0703
     ddc:	82 15       	cp	r24, r2
     dde:	93 05       	cpc	r25, r3
     de0:	0c f0       	brlt	.+2      	; 0xde4 <calcVI+0x38a>
     de2:	3c c1       	rjmp	.+632    	; 0x105c <calcVI+0x602>
     de4:	51 e0       	ldi	r21, 0x01	; 1
     de6:	50 93 14 07 	sts	0x0714, r21
     dea:	80 91 14 07 	lds	r24, 0x0714
     dee:	af 85       	ldd	r26, Y+15	; 0x0f
     df0:	b8 89       	ldd	r27, Y+16	; 0x10
     df2:	11 97       	sbiw	r26, 0x01	; 1
     df4:	11 f4       	brne	.+4      	; 0xdfa <calcVI+0x3a0>
     df6:	80 93 f7 06 	sts	0x06F7, r24
     dfa:	90 91 f7 06 	lds	r25, 0x06F7
     dfe:	98 17       	cp	r25, r24
     e00:	11 f0       	breq	.+4      	; 0xe06 <calcVI+0x3ac>
     e02:	0f 5f       	subi	r16, 0xFF	; 255
     e04:	1f 4f       	sbci	r17, 0xFF	; 255
     e06:	ed 85       	ldd	r30, Y+13	; 0x0d
     e08:	fe 85       	ldd	r31, Y+14	; 0x0e
     e0a:	0e 17       	cp	r16, r30
     e0c:	1f 07       	cpc	r17, r31
     e0e:	08 f4       	brcc	.+2      	; 0xe12 <calcVI+0x3b8>
     e10:	9e ce       	rjmp	.-708    	; 0xb4e <calcVI+0xf4>
     e12:	29 85       	ldd	r18, Y+9	; 0x09
     e14:	3a 85       	ldd	r19, Y+10	; 0x0a
     e16:	b9 01       	movw	r22, r18
     e18:	88 27       	eor	r24, r24
     e1a:	77 fd       	sbrc	r23, 7
     e1c:	80 95       	com	r24
     e1e:	98 2f       	mov	r25, r24
     e20:	0e 94 ca 15 	call	0x2b94	; 0x2b94 <__floatsisf>
     e24:	20 e0       	ldi	r18, 0x00	; 0
     e26:	30 e0       	ldi	r19, 0x00	; 0
     e28:	4a e7       	ldi	r20, 0x7A	; 122
     e2a:	54 e4       	ldi	r21, 0x44	; 68
     e2c:	0e 94 34 15 	call	0x2a68	; 0x2a68 <__divsf3>
     e30:	20 e0       	ldi	r18, 0x00	; 0
     e32:	30 e0       	ldi	r19, 0x00	; 0
     e34:	40 e8       	ldi	r20, 0x80	; 128
     e36:	5a e3       	ldi	r21, 0x3A	; 58
     e38:	0e 94 7e 16 	call	0x2cfc	; 0x2cfc <__mulsf3>
     e3c:	6b 01       	movw	r12, r22
     e3e:	7c 01       	movw	r14, r24
     e40:	20 91 d0 06 	lds	r18, 0x06D0
     e44:	30 91 d1 06 	lds	r19, 0x06D1
     e48:	40 91 d2 06 	lds	r20, 0x06D2
     e4c:	50 91 d3 06 	lds	r21, 0x06D3
     e50:	0e 94 7e 16 	call	0x2cfc	; 0x2cfc <__mulsf3>
     e54:	2b 01       	movw	r4, r22
     e56:	3c 01       	movw	r6, r24
     e58:	4f 85       	ldd	r20, Y+15	; 0x0f
     e5a:	58 89       	ldd	r21, Y+16	; 0x10
     e5c:	ba 01       	movw	r22, r20
     e5e:	80 e0       	ldi	r24, 0x00	; 0
     e60:	90 e0       	ldi	r25, 0x00	; 0
     e62:	0e 94 c8 15 	call	0x2b90	; 0x2b90 <__floatunsisf>
     e66:	4b 01       	movw	r8, r22
     e68:	5c 01       	movw	r10, r24
     e6a:	9b 01       	movw	r18, r22
     e6c:	ac 01       	movw	r20, r24
     e6e:	60 91 08 07 	lds	r22, 0x0708
     e72:	70 91 09 07 	lds	r23, 0x0709
     e76:	80 91 0a 07 	lds	r24, 0x070A
     e7a:	90 91 0b 07 	lds	r25, 0x070B
     e7e:	0e 94 34 15 	call	0x2a68	; 0x2a68 <__divsf3>
     e82:	0e 94 e5 16 	call	0x2dca	; 0x2dca <sqrt>
     e86:	9b 01       	movw	r18, r22
     e88:	ac 01       	movw	r20, r24
     e8a:	c3 01       	movw	r24, r6
     e8c:	b2 01       	movw	r22, r4
     e8e:	0e 94 7e 16 	call	0x2cfc	; 0x2cfc <__mulsf3>
     e92:	69 83       	std	Y+1, r22	; 0x01
     e94:	7a 83       	std	Y+2, r23	; 0x02
     e96:	8b 83       	std	Y+3, r24	; 0x03
     e98:	9c 83       	std	Y+4, r25	; 0x04
     e9a:	60 93 8e 06 	sts	0x068E, r22
     e9e:	70 93 8f 06 	sts	0x068F, r23
     ea2:	80 93 90 06 	sts	0x0690, r24
     ea6:	90 93 91 06 	sts	0x0691, r25
     eaa:	20 91 d4 06 	lds	r18, 0x06D4
     eae:	30 91 d5 06 	lds	r19, 0x06D5
     eb2:	40 91 d6 06 	lds	r20, 0x06D6
     eb6:	50 91 d7 06 	lds	r21, 0x06D7
     eba:	c7 01       	movw	r24, r14
     ebc:	b6 01       	movw	r22, r12
     ebe:	0e 94 7e 16 	call	0x2cfc	; 0x2cfc <__mulsf3>
     ec2:	6d 83       	std	Y+5, r22	; 0x05
     ec4:	7e 83       	std	Y+6, r23	; 0x06
     ec6:	8f 83       	std	Y+7, r24	; 0x07
     ec8:	98 87       	std	Y+8, r25	; 0x08
     eca:	a5 01       	movw	r20, r10
     ecc:	94 01       	movw	r18, r8
     ece:	60 91 17 07 	lds	r22, 0x0717
     ed2:	70 91 18 07 	lds	r23, 0x0718
     ed6:	80 91 19 07 	lds	r24, 0x0719
     eda:	90 91 1a 07 	lds	r25, 0x071A
     ede:	0e 94 34 15 	call	0x2a68	; 0x2a68 <__divsf3>
     ee2:	0e 94 e5 16 	call	0x2dca	; 0x2dca <sqrt>
     ee6:	9b 01       	movw	r18, r22
     ee8:	ac 01       	movw	r20, r24
     eea:	6d 81       	ldd	r22, Y+5	; 0x05
     eec:	7e 81       	ldd	r23, Y+6	; 0x06
     eee:	8f 81       	ldd	r24, Y+7	; 0x07
     ef0:	98 85       	ldd	r25, Y+8	; 0x08
     ef2:	0e 94 7e 16 	call	0x2cfc	; 0x2cfc <__mulsf3>
     ef6:	69 87       	std	Y+9, r22	; 0x09
     ef8:	7a 87       	std	Y+10, r23	; 0x0a
     efa:	8b 87       	std	Y+11, r24	; 0x0b
     efc:	9c 87       	std	Y+12, r25	; 0x0c
     efe:	60 93 92 06 	sts	0x0692, r22
     f02:	70 93 93 06 	sts	0x0693, r23
     f06:	80 93 94 06 	sts	0x0694, r24
     f0a:	90 93 95 06 	sts	0x0695, r25
     f0e:	60 91 76 06 	lds	r22, 0x0676
     f12:	70 e0       	ldi	r23, 0x00	; 0
     f14:	80 e0       	ldi	r24, 0x00	; 0
     f16:	90 e0       	ldi	r25, 0x00	; 0
     f18:	0e 94 ca 15 	call	0x2b94	; 0x2b94 <__floatsisf>
     f1c:	6b 01       	movw	r12, r22
     f1e:	7c 01       	movw	r14, r24
     f20:	2d 81       	ldd	r18, Y+5	; 0x05
     f22:	3e 81       	ldd	r19, Y+6	; 0x06
     f24:	4f 81       	ldd	r20, Y+7	; 0x07
     f26:	58 85       	ldd	r21, Y+8	; 0x08
     f28:	c3 01       	movw	r24, r6
     f2a:	b2 01       	movw	r22, r4
     f2c:	0e 94 7e 16 	call	0x2cfc	; 0x2cfc <__mulsf3>
     f30:	20 91 f3 06 	lds	r18, 0x06F3
     f34:	30 91 f4 06 	lds	r19, 0x06F4
     f38:	40 91 f5 06 	lds	r20, 0x06F5
     f3c:	50 91 f6 06 	lds	r21, 0x06F6
     f40:	0e 94 7e 16 	call	0x2cfc	; 0x2cfc <__mulsf3>
     f44:	a5 01       	movw	r20, r10
     f46:	94 01       	movw	r18, r8
     f48:	0e 94 34 15 	call	0x2a68	; 0x2a68 <__divsf3>
     f4c:	a7 01       	movw	r20, r14
     f4e:	96 01       	movw	r18, r12
     f50:	0e 94 34 15 	call	0x2a68	; 0x2a68 <__divsf3>
     f54:	20 91 86 06 	lds	r18, 0x0686
     f58:	30 91 87 06 	lds	r19, 0x0687
     f5c:	40 91 88 06 	lds	r20, 0x0688
     f60:	50 91 89 06 	lds	r21, 0x0689
     f64:	0e 94 cc 14 	call	0x2998	; 0x2998 <__addsf3>
     f68:	4b 01       	movw	r8, r22
     f6a:	5c 01       	movw	r10, r24
     f6c:	60 93 86 06 	sts	0x0686, r22
     f70:	70 93 87 06 	sts	0x0687, r23
     f74:	80 93 88 06 	sts	0x0688, r24
     f78:	90 93 89 06 	sts	0x0689, r25
     f7c:	29 85       	ldd	r18, Y+9	; 0x09
     f7e:	3a 85       	ldd	r19, Y+10	; 0x0a
     f80:	4b 85       	ldd	r20, Y+11	; 0x0b
     f82:	5c 85       	ldd	r21, Y+12	; 0x0c
     f84:	69 81       	ldd	r22, Y+1	; 0x01
     f86:	7a 81       	ldd	r23, Y+2	; 0x02
     f88:	8b 81       	ldd	r24, Y+3	; 0x03
     f8a:	9c 81       	ldd	r25, Y+4	; 0x04
     f8c:	0e 94 7e 16 	call	0x2cfc	; 0x2cfc <__mulsf3>
     f90:	a7 01       	movw	r20, r14
     f92:	96 01       	movw	r18, r12
     f94:	0e 94 34 15 	call	0x2a68	; 0x2a68 <__divsf3>
     f98:	20 91 8a 06 	lds	r18, 0x068A
     f9c:	30 91 8b 06 	lds	r19, 0x068B
     fa0:	40 91 8c 06 	lds	r20, 0x068C
     fa4:	50 91 8d 06 	lds	r21, 0x068D
     fa8:	0e 94 cc 14 	call	0x2998	; 0x2998 <__addsf3>
     fac:	9b 01       	movw	r18, r22
     fae:	ac 01       	movw	r20, r24
     fb0:	60 93 8a 06 	sts	0x068A, r22
     fb4:	70 93 8b 06 	sts	0x068B, r23
     fb8:	80 93 8c 06 	sts	0x068C, r24
     fbc:	90 93 8d 06 	sts	0x068D, r25
     fc0:	c5 01       	movw	r24, r10
     fc2:	b4 01       	movw	r22, r8
     fc4:	0e 94 34 15 	call	0x2a68	; 0x2a68 <__divsf3>
     fc8:	a7 01       	movw	r20, r14
     fca:	96 01       	movw	r18, r12
     fcc:	0e 94 34 15 	call	0x2a68	; 0x2a68 <__divsf3>
     fd0:	9b 01       	movw	r18, r22
     fd2:	ac 01       	movw	r20, r24
     fd4:	60 91 96 06 	lds	r22, 0x0696
     fd8:	70 91 97 06 	lds	r23, 0x0697
     fdc:	80 91 98 06 	lds	r24, 0x0698
     fe0:	90 91 99 06 	lds	r25, 0x0699
     fe4:	0e 94 cc 14 	call	0x2998	; 0x2998 <__addsf3>
     fe8:	60 93 96 06 	sts	0x0696, r22
     fec:	70 93 97 06 	sts	0x0697, r23
     ff0:	80 93 98 06 	sts	0x0698, r24
     ff4:	90 93 99 06 	sts	0x0699, r25
     ff8:	10 92 08 07 	sts	0x0708, r1
     ffc:	10 92 09 07 	sts	0x0709, r1
    1000:	10 92 0a 07 	sts	0x070A, r1
    1004:	10 92 0b 07 	sts	0x070B, r1
    1008:	10 92 17 07 	sts	0x0717, r1
    100c:	10 92 18 07 	sts	0x0718, r1
    1010:	10 92 19 07 	sts	0x0719, r1
    1014:	10 92 1a 07 	sts	0x071A, r1
    1018:	10 92 f3 06 	sts	0x06F3, r1
    101c:	10 92 f4 06 	sts	0x06F4, r1
    1020:	10 92 f5 06 	sts	0x06F5, r1
    1024:	10 92 f6 06 	sts	0x06F6, r1
    1028:	60 96       	adiw	r28, 0x10	; 16
    102a:	0f b6       	in	r0, 0x3f	; 63
    102c:	f8 94       	cli
    102e:	de bf       	out	0x3e, r29	; 62
    1030:	0f be       	out	0x3f, r0	; 63
    1032:	cd bf       	out	0x3d, r28	; 61
    1034:	df 91       	pop	r29
    1036:	cf 91       	pop	r28
    1038:	1f 91       	pop	r17
    103a:	0f 91       	pop	r16
    103c:	ff 90       	pop	r15
    103e:	ef 90       	pop	r14
    1040:	df 90       	pop	r13
    1042:	cf 90       	pop	r12
    1044:	bf 90       	pop	r11
    1046:	af 90       	pop	r10
    1048:	9f 90       	pop	r9
    104a:	8f 90       	pop	r8
    104c:	7f 90       	pop	r7
    104e:	6f 90       	pop	r6
    1050:	5f 90       	pop	r5
    1052:	4f 90       	pop	r4
    1054:	3f 90       	pop	r3
    1056:	2f 90       	pop	r2
    1058:	0c 94 03 11 	jmp	0x2206	; 0x2206 <stop_millis>
    105c:	10 92 14 07 	sts	0x0714, r1
    1060:	c4 ce       	rjmp	.-632    	; 0xdea <calcVI+0x390>

00001062 <calcIrms>:
    1062:	4f 92       	push	r4
    1064:	5f 92       	push	r5
    1066:	6f 92       	push	r6
    1068:	7f 92       	push	r7
    106a:	8f 92       	push	r8
    106c:	9f 92       	push	r9
    106e:	af 92       	push	r10
    1070:	bf 92       	push	r11
    1072:	cf 92       	push	r12
    1074:	df 92       	push	r13
    1076:	ef 92       	push	r14
    1078:	ff 92       	push	r15
    107a:	0f 93       	push	r16
    107c:	1f 93       	push	r17
    107e:	cf 93       	push	r28
    1080:	df 93       	push	r29
    1082:	8c 01       	movw	r16, r24
    1084:	0e 94 01 05 	call	0xa02	; 0xa02 <readVcc>
    1088:	2b 01       	movw	r4, r22
    108a:	3c 01       	movw	r6, r24
    108c:	c0 e0       	ldi	r28, 0x00	; 0
    108e:	d0 e0       	ldi	r29, 0x00	; 0
    1090:	c0 17       	cp	r28, r16
    1092:	d1 07       	cpc	r29, r17
    1094:	09 f4       	brne	.+2      	; 0x1098 <calcIrms+0x36>
    1096:	61 c0       	rjmp	.+194    	; 0x115a <calcIrms+0xf8>
    1098:	80 91 ce 06 	lds	r24, 0x06CE
    109c:	0e 94 81 01 	call	0x302	; 0x302 <adc_value>
    10a0:	90 93 16 07 	sts	0x0716, r25
    10a4:	80 93 15 07 	sts	0x0715, r24
    10a8:	bc 01       	movw	r22, r24
    10aa:	88 27       	eor	r24, r24
    10ac:	77 fd       	sbrc	r23, 7
    10ae:	80 95       	com	r24
    10b0:	98 2f       	mov	r25, r24
    10b2:	0e 94 ca 15 	call	0x2b94	; 0x2b94 <__floatsisf>
    10b6:	6b 01       	movw	r12, r22
    10b8:	7c 01       	movw	r14, r24
    10ba:	80 90 fa 06 	lds	r8, 0x06FA
    10be:	90 90 fb 06 	lds	r9, 0x06FB
    10c2:	a0 90 fc 06 	lds	r10, 0x06FC
    10c6:	b0 90 fd 06 	lds	r11, 0x06FD
    10ca:	a5 01       	movw	r20, r10
    10cc:	94 01       	movw	r18, r8
    10ce:	0e 94 cb 14 	call	0x2996	; 0x2996 <__subsf3>
    10d2:	20 e0       	ldi	r18, 0x00	; 0
    10d4:	30 e0       	ldi	r19, 0x00	; 0
    10d6:	40 e8       	ldi	r20, 0x80	; 128
    10d8:	5a e3       	ldi	r21, 0x3A	; 58
    10da:	0e 94 7e 16 	call	0x2cfc	; 0x2cfc <__mulsf3>
    10de:	9b 01       	movw	r18, r22
    10e0:	ac 01       	movw	r20, r24
    10e2:	c5 01       	movw	r24, r10
    10e4:	b4 01       	movw	r22, r8
    10e6:	0e 94 cc 14 	call	0x2998	; 0x2998 <__addsf3>
    10ea:	9b 01       	movw	r18, r22
    10ec:	ac 01       	movw	r20, r24
    10ee:	60 93 fa 06 	sts	0x06FA, r22
    10f2:	70 93 fb 06 	sts	0x06FB, r23
    10f6:	80 93 fc 06 	sts	0x06FC, r24
    10fa:	90 93 fd 06 	sts	0x06FD, r25
    10fe:	c7 01       	movw	r24, r14
    1100:	b6 01       	movw	r22, r12
    1102:	0e 94 cb 14 	call	0x2996	; 0x2996 <__subsf3>
    1106:	60 93 04 07 	sts	0x0704, r22
    110a:	70 93 05 07 	sts	0x0705, r23
    110e:	80 93 06 07 	sts	0x0706, r24
    1112:	90 93 07 07 	sts	0x0707, r25
    1116:	9b 01       	movw	r18, r22
    1118:	ac 01       	movw	r20, r24
    111a:	0e 94 7e 16 	call	0x2cfc	; 0x2cfc <__mulsf3>
    111e:	9b 01       	movw	r18, r22
    1120:	ac 01       	movw	r20, r24
    1122:	60 93 1b 07 	sts	0x071B, r22
    1126:	70 93 1c 07 	sts	0x071C, r23
    112a:	80 93 1d 07 	sts	0x071D, r24
    112e:	90 93 1e 07 	sts	0x071E, r25
    1132:	60 91 17 07 	lds	r22, 0x0717
    1136:	70 91 18 07 	lds	r23, 0x0718
    113a:	80 91 19 07 	lds	r24, 0x0719
    113e:	90 91 1a 07 	lds	r25, 0x071A
    1142:	0e 94 cc 14 	call	0x2998	; 0x2998 <__addsf3>
    1146:	60 93 17 07 	sts	0x0717, r22
    114a:	70 93 18 07 	sts	0x0718, r23
    114e:	80 93 19 07 	sts	0x0719, r24
    1152:	90 93 1a 07 	sts	0x071A, r25
    1156:	21 96       	adiw	r28, 0x01	; 1
    1158:	9b cf       	rjmp	.-202    	; 0x1090 <calcIrms+0x2e>
    115a:	be 01       	movw	r22, r28
    115c:	80 e0       	ldi	r24, 0x00	; 0
    115e:	90 e0       	ldi	r25, 0x00	; 0
    1160:	0e 94 c8 15 	call	0x2b90	; 0x2b90 <__floatunsisf>
    1164:	9b 01       	movw	r18, r22
    1166:	ac 01       	movw	r20, r24
    1168:	60 91 17 07 	lds	r22, 0x0717
    116c:	70 91 18 07 	lds	r23, 0x0718
    1170:	80 91 19 07 	lds	r24, 0x0719
    1174:	90 91 1a 07 	lds	r25, 0x071A
    1178:	0e 94 34 15 	call	0x2a68	; 0x2a68 <__divsf3>
    117c:	0e 94 e5 16 	call	0x2dca	; 0x2dca <sqrt>
    1180:	6b 01       	movw	r12, r22
    1182:	7c 01       	movw	r14, r24
    1184:	b2 01       	movw	r22, r4
    1186:	88 27       	eor	r24, r24
    1188:	77 fd       	sbrc	r23, 7
    118a:	80 95       	com	r24
    118c:	98 2f       	mov	r25, r24
    118e:	0e 94 ca 15 	call	0x2b94	; 0x2b94 <__floatsisf>
    1192:	20 e0       	ldi	r18, 0x00	; 0
    1194:	30 e0       	ldi	r19, 0x00	; 0
    1196:	4a e7       	ldi	r20, 0x7A	; 122
    1198:	54 e4       	ldi	r21, 0x44	; 68
    119a:	0e 94 34 15 	call	0x2a68	; 0x2a68 <__divsf3>
    119e:	20 e0       	ldi	r18, 0x00	; 0
    11a0:	30 e0       	ldi	r19, 0x00	; 0
    11a2:	40 e8       	ldi	r20, 0x80	; 128
    11a4:	5a e3       	ldi	r21, 0x3A	; 58
    11a6:	0e 94 7e 16 	call	0x2cfc	; 0x2cfc <__mulsf3>
    11aa:	20 91 d4 06 	lds	r18, 0x06D4
    11ae:	30 91 d5 06 	lds	r19, 0x06D5
    11b2:	40 91 d6 06 	lds	r20, 0x06D6
    11b6:	50 91 d7 06 	lds	r21, 0x06D7
    11ba:	0e 94 7e 16 	call	0x2cfc	; 0x2cfc <__mulsf3>
    11be:	a7 01       	movw	r20, r14
    11c0:	96 01       	movw	r18, r12
    11c2:	0e 94 7e 16 	call	0x2cfc	; 0x2cfc <__mulsf3>
    11c6:	60 93 92 06 	sts	0x0692, r22
    11ca:	70 93 93 06 	sts	0x0693, r23
    11ce:	80 93 94 06 	sts	0x0694, r24
    11d2:	90 93 95 06 	sts	0x0695, r25
    11d6:	10 92 17 07 	sts	0x0717, r1
    11da:	10 92 18 07 	sts	0x0718, r1
    11de:	10 92 19 07 	sts	0x0719, r1
    11e2:	10 92 1a 07 	sts	0x071A, r1
    11e6:	df 91       	pop	r29
    11e8:	cf 91       	pop	r28
    11ea:	1f 91       	pop	r17
    11ec:	0f 91       	pop	r16
    11ee:	ff 90       	pop	r15
    11f0:	ef 90       	pop	r14
    11f2:	df 90       	pop	r13
    11f4:	cf 90       	pop	r12
    11f6:	bf 90       	pop	r11
    11f8:	af 90       	pop	r10
    11fa:	9f 90       	pop	r9
    11fc:	8f 90       	pop	r8
    11fe:	7f 90       	pop	r7
    1200:	6f 90       	pop	r6
    1202:	5f 90       	pop	r5
    1204:	4f 90       	pop	r4
    1206:	08 95       	ret

00001208 <state_config>:
    1208:	61 ef       	ldi	r22, 0xF1	; 241
    120a:	72 e0       	ldi	r23, 0x02	; 2
    120c:	82 e6       	ldi	r24, 0x62	; 98
    120e:	96 e0       	ldi	r25, 0x06	; 6
    1210:	0e 94 86 17 	call	0x2f0c	; 0x2f0c <strcmp>
    1214:	89 2b       	or	r24, r25
    1216:	19 f4       	brne	.+6      	; 0x121e <state_config+0x16>
    1218:	0e 94 cb 12 	call	0x2596	; 0x2596 <USART0_print_conf>
    121c:	11 c0       	rjmp	.+34     	; 0x1240 <state_config+0x38>
    121e:	80 91 62 06 	lds	r24, 0x0662
    1222:	84 32       	cpi	r24, 0x24	; 36
    1224:	49 f4       	brne	.+18     	; 0x1238 <state_config+0x30>
    1226:	80 91 65 06 	lds	r24, 0x0665
    122a:	8d 33       	cpi	r24, 0x3D	; 61
    122c:	29 f4       	brne	.+10     	; 0x1238 <state_config+0x30>
    122e:	82 e6       	ldi	r24, 0x62	; 98
    1230:	96 e0       	ldi	r25, 0x06	; 6
    1232:	0e 94 92 01 	call	0x324	; 0x324 <config_update>
    1236:	04 c0       	rjmp	.+8      	; 0x1240 <state_config+0x38>
    1238:	84 ef       	ldi	r24, 0xF4	; 244
    123a:	92 e0       	ldi	r25, 0x02	; 2
    123c:	0e 94 9b 12 	call	0x2536	; 0x2536 <USART0_print>
    1240:	10 92 60 06 	sts	0x0660, r1
    1244:	10 92 62 06 	sts	0x0662, r1
    1248:	10 92 4f 06 	sts	0x064F, r1
    124c:	84 e0       	ldi	r24, 0x04	; 4
    124e:	80 93 6e 06 	sts	0x066E, r24
    1252:	08 95       	ret

00001254 <state_measure>:
    1254:	cf 93       	push	r28
    1256:	80 91 de 06 	lds	r24, 0x06DE
    125a:	81 30       	cpi	r24, 0x01	; 1
    125c:	d1 f4       	brne	.+52     	; 0x1292 <state_measure+0x3e>
    125e:	0e 94 9a 0e 	call	0x1d34	; 0x1d34 <anemo_start_count>
    1262:	80 91 75 06 	lds	r24, 0x0675
    1266:	81 11       	cpse	r24, r1
    1268:	04 c0       	rjmp	.+8      	; 0x1272 <state_measure+0x1e>
    126a:	88 e7       	ldi	r24, 0x78	; 120
    126c:	96 e0       	ldi	r25, 0x06	; 6
    126e:	0e 94 69 0e 	call	0x1cd2	; 0x1cd2 <measure_clear>
    1272:	88 e7       	ldi	r24, 0x78	; 120
    1274:	96 e0       	ldi	r25, 0x06	; 6
    1276:	0e 94 8a 0f 	call	0x1f14	; 0x1f14 <dir_value>
    127a:	88 e7       	ldi	r24, 0x78	; 120
    127c:	96 e0       	ldi	r25, 0x06	; 6
    127e:	0e 94 bb 0f 	call	0x1f76	; 0x1f76 <temp_value>
    1282:	64 e8       	ldi	r22, 0x84	; 132
    1284:	73 e0       	ldi	r23, 0x03	; 3
    1286:	88 e0       	ldi	r24, 0x08	; 8
    1288:	90 e0       	ldi	r25, 0x00	; 0
    128a:	0e 94 2d 05 	call	0xa5a	; 0xa5a <calcVI>
    128e:	10 92 de 06 	sts	0x06DE, r1
    1292:	c0 91 dd 06 	lds	r28, 0x06DD
    1296:	c1 30       	cpi	r28, 0x01	; 1
    1298:	99 f4       	brne	.+38     	; 0x12c0 <state_measure+0x6c>
    129a:	10 92 dd 06 	sts	0x06DD, r1
    129e:	88 e7       	ldi	r24, 0x78	; 120
    12a0:	96 e0       	ldi	r25, 0x06	; 6
    12a2:	0e 94 bd 0e 	call	0x1d7a	; 0x1d7a <anemo_read_value>
    12a6:	80 91 75 06 	lds	r24, 0x0675
    12aa:	8f 5f       	subi	r24, 0xFF	; 255
    12ac:	80 93 75 06 	sts	0x0675, r24
    12b0:	90 91 76 06 	lds	r25, 0x0676
    12b4:	89 13       	cpse	r24, r25
    12b6:	04 c0       	rjmp	.+8      	; 0x12c0 <state_measure+0x6c>
    12b8:	10 92 75 06 	sts	0x0675, r1
    12bc:	c0 93 6c 06 	sts	0x066C, r28
    12c0:	80 91 6c 06 	lds	r24, 0x066C
    12c4:	81 30       	cpi	r24, 0x01	; 1
    12c6:	11 f4       	brne	.+4      	; 0x12cc <state_measure+0x78>
    12c8:	82 e0       	ldi	r24, 0x02	; 2
    12ca:	01 c0       	rjmp	.+2      	; 0x12ce <state_measure+0x7a>
    12cc:	84 e0       	ldi	r24, 0x04	; 4
    12ce:	80 93 6e 06 	sts	0x066E, r24
    12d2:	cf 91       	pop	r28
    12d4:	08 95       	ret

000012d6 <state_timestamp>:
    12d6:	80 91 f0 06 	lds	r24, 0x06F0
    12da:	90 91 f1 06 	lds	r25, 0x06F1
    12de:	0e 94 57 0d 	call	0x1aae	; 0x1aae <RTC_get_date>
    12e2:	10 92 6c 06 	sts	0x066C, r1
    12e6:	80 91 4f 06 	lds	r24, 0x064F
    12ea:	88 23       	and	r24, r24
    12ec:	19 f0       	breq	.+6      	; 0x12f4 <state_timestamp+0x1e>
    12ee:	10 92 6e 06 	sts	0x066E, r1
    12f2:	08 95       	ret
    12f4:	83 e0       	ldi	r24, 0x03	; 3
    12f6:	80 93 6e 06 	sts	0x066E, r24
    12fa:	08 95       	ret

000012fc <state_output>:
    12fc:	0f 93       	push	r16
    12fe:	1f 93       	push	r17
    1300:	cf 93       	push	r28
    1302:	df 93       	push	r29
    1304:	cd b7       	in	r28, 0x3d	; 61
    1306:	de b7       	in	r29, 0x3e	; 62
    1308:	ee 97       	sbiw	r28, 0x3e	; 62
    130a:	0f b6       	in	r0, 0x3f	; 63
    130c:	f8 94       	cli
    130e:	de bf       	out	0x3e, r29	; 62
    1310:	0f be       	out	0x3f, r0	; 63
    1312:	cd bf       	out	0x3d, r28	; 61
    1314:	80 91 dc 06 	lds	r24, 0x06DC
    1318:	4a e0       	ldi	r20, 0x0A	; 10
    131a:	be 01       	movw	r22, r28
    131c:	6d 5c       	subi	r22, 0xCD	; 205
    131e:	7f 4f       	sbci	r23, 0xFF	; 255
    1320:	90 e0       	ldi	r25, 0x00	; 0
    1322:	0e 94 96 17 	call	0x2f2c	; 0x2f2c <__itoa_ncheck>
    1326:	bc 01       	movw	r22, r24
    1328:	ce 01       	movw	r24, r28
    132a:	01 96       	adiw	r24, 0x01	; 1
    132c:	0e 94 8f 17 	call	0x2f1e	; 0x2f1e <strcpy>
    1330:	6f ee       	ldi	r22, 0xEF	; 239
    1332:	72 e0       	ldi	r23, 0x02	; 2
    1334:	ce 01       	movw	r24, r28
    1336:	01 96       	adiw	r24, 0x01	; 1
    1338:	0e 94 7b 17 	call	0x2ef6	; 0x2ef6 <strcat>
    133c:	60 91 7c 06 	lds	r22, 0x067C
    1340:	70 91 7d 06 	lds	r23, 0x067D
    1344:	80 91 7e 06 	lds	r24, 0x067E
    1348:	90 91 7f 06 	lds	r25, 0x067F
    134c:	8e 01       	movw	r16, r28
    134e:	0d 5c       	subi	r16, 0xCD	; 205
    1350:	1f 4f       	sbci	r17, 0xFF	; 255
    1352:	21 e0       	ldi	r18, 0x01	; 1
    1354:	40 e0       	ldi	r20, 0x00	; 0
    1356:	0e 94 38 17 	call	0x2e70	; 0x2e70 <dtostrf>
    135a:	bc 01       	movw	r22, r24
    135c:	ce 01       	movw	r24, r28
    135e:	01 96       	adiw	r24, 0x01	; 1
    1360:	0e 94 7b 17 	call	0x2ef6	; 0x2ef6 <strcat>
    1364:	6f ee       	ldi	r22, 0xEF	; 239
    1366:	72 e0       	ldi	r23, 0x02	; 2
    1368:	ce 01       	movw	r24, r28
    136a:	01 96       	adiw	r24, 0x01	; 1
    136c:	0e 94 7b 17 	call	0x2ef6	; 0x2ef6 <strcat>
    1370:	4a e0       	ldi	r20, 0x0A	; 10
    1372:	b8 01       	movw	r22, r16
    1374:	80 91 84 06 	lds	r24, 0x0684
    1378:	90 91 85 06 	lds	r25, 0x0685
    137c:	0e 94 96 17 	call	0x2f2c	; 0x2f2c <__itoa_ncheck>
    1380:	bc 01       	movw	r22, r24
    1382:	ce 01       	movw	r24, r28
    1384:	01 96       	adiw	r24, 0x01	; 1
    1386:	0e 94 7b 17 	call	0x2ef6	; 0x2ef6 <strcat>
    138a:	6f ee       	ldi	r22, 0xEF	; 239
    138c:	72 e0       	ldi	r23, 0x02	; 2
    138e:	ce 01       	movw	r24, r28
    1390:	01 96       	adiw	r24, 0x01	; 1
    1392:	0e 94 7b 17 	call	0x2ef6	; 0x2ef6 <strcat>
    1396:	60 91 9e 06 	lds	r22, 0x069E
    139a:	70 91 9f 06 	lds	r23, 0x069F
    139e:	80 91 a0 06 	lds	r24, 0x06A0
    13a2:	90 91 a1 06 	lds	r25, 0x06A1
    13a6:	21 e0       	ldi	r18, 0x01	; 1
    13a8:	40 e0       	ldi	r20, 0x00	; 0
    13aa:	0e 94 38 17 	call	0x2e70	; 0x2e70 <dtostrf>
    13ae:	bc 01       	movw	r22, r24
    13b0:	ce 01       	movw	r24, r28
    13b2:	01 96       	adiw	r24, 0x01	; 1
    13b4:	0e 94 7b 17 	call	0x2ef6	; 0x2ef6 <strcat>
    13b8:	6f ee       	ldi	r22, 0xEF	; 239
    13ba:	72 e0       	ldi	r23, 0x02	; 2
    13bc:	ce 01       	movw	r24, r28
    13be:	01 96       	adiw	r24, 0x01	; 1
    13c0:	0e 94 7b 17 	call	0x2ef6	; 0x2ef6 <strcat>
    13c4:	60 91 8a 06 	lds	r22, 0x068A
    13c8:	70 91 8b 06 	lds	r23, 0x068B
    13cc:	80 91 8c 06 	lds	r24, 0x068C
    13d0:	90 91 8d 06 	lds	r25, 0x068D
    13d4:	20 e0       	ldi	r18, 0x00	; 0
    13d6:	40 e0       	ldi	r20, 0x00	; 0
    13d8:	0e 94 38 17 	call	0x2e70	; 0x2e70 <dtostrf>
    13dc:	bc 01       	movw	r22, r24
    13de:	ce 01       	movw	r24, r28
    13e0:	01 96       	adiw	r24, 0x01	; 1
    13e2:	0e 94 7b 17 	call	0x2ef6	; 0x2ef6 <strcat>
    13e6:	6f ee       	ldi	r22, 0xEF	; 239
    13e8:	72 e0       	ldi	r23, 0x02	; 2
    13ea:	ce 01       	movw	r24, r28
    13ec:	01 96       	adiw	r24, 0x01	; 1
    13ee:	0e 94 7b 17 	call	0x2ef6	; 0x2ef6 <strcat>
    13f2:	60 91 86 06 	lds	r22, 0x0686
    13f6:	70 91 87 06 	lds	r23, 0x0687
    13fa:	80 91 88 06 	lds	r24, 0x0688
    13fe:	90 91 89 06 	lds	r25, 0x0689
    1402:	20 e0       	ldi	r18, 0x00	; 0
    1404:	40 e0       	ldi	r20, 0x00	; 0
    1406:	0e 94 38 17 	call	0x2e70	; 0x2e70 <dtostrf>
    140a:	bc 01       	movw	r22, r24
    140c:	ce 01       	movw	r24, r28
    140e:	01 96       	adiw	r24, 0x01	; 1
    1410:	0e 94 7b 17 	call	0x2ef6	; 0x2ef6 <strcat>
    1414:	63 e0       	ldi	r22, 0x03	; 3
    1416:	73 e0       	ldi	r23, 0x03	; 3
    1418:	ce 01       	movw	r24, r28
    141a:	01 96       	adiw	r24, 0x01	; 1
    141c:	0e 94 7b 17 	call	0x2ef6	; 0x2ef6 <strcat>
    1420:	ce 01       	movw	r24, r28
    1422:	01 96       	adiw	r24, 0x01	; 1
    1424:	0e 94 9b 12 	call	0x2536	; 0x2536 <USART0_print>
    1428:	80 91 4f 06 	lds	r24, 0x064F
    142c:	88 23       	and	r24, r24
    142e:	19 f0       	breq	.+6      	; 0x1436 <state_output+0x13a>
    1430:	10 92 6e 06 	sts	0x066E, r1
    1434:	09 c0       	rjmp	.+18     	; 0x1448 <state_output+0x14c>
    1436:	80 91 de 06 	lds	r24, 0x06DE
    143a:	88 23       	and	r24, r24
    143c:	11 f0       	breq	.+4      	; 0x1442 <state_output+0x146>
    143e:	81 e0       	ldi	r24, 0x01	; 1
    1440:	01 c0       	rjmp	.+2      	; 0x1444 <state_output+0x148>
    1442:	84 e0       	ldi	r24, 0x04	; 4
    1444:	80 93 6e 06 	sts	0x066E, r24
    1448:	ee 96       	adiw	r28, 0x3e	; 62
    144a:	0f b6       	in	r0, 0x3f	; 63
    144c:	f8 94       	cli
    144e:	de bf       	out	0x3e, r29	; 62
    1450:	0f be       	out	0x3f, r0	; 63
    1452:	cd bf       	out	0x3d, r28	; 61
    1454:	df 91       	pop	r29
    1456:	cf 91       	pop	r28
    1458:	1f 91       	pop	r17
    145a:	0f 91       	pop	r16
    145c:	08 95       	ret

0000145e <state_sleep>:
    145e:	80 91 4f 06 	lds	r24, 0x064F
    1462:	88 23       	and	r24, r24
    1464:	19 f0       	breq	.+6      	; 0x146c <state_sleep+0xe>
    1466:	10 92 6e 06 	sts	0x066E, r1
    146a:	08 95       	ret
    146c:	80 91 de 06 	lds	r24, 0x06DE
    1470:	81 30       	cpi	r24, 0x01	; 1
    1472:	21 f0       	breq	.+8      	; 0x147c <state_sleep+0x1e>
    1474:	80 91 dd 06 	lds	r24, 0x06DD
    1478:	81 30       	cpi	r24, 0x01	; 1
    147a:	11 f4       	brne	.+4      	; 0x1480 <state_sleep+0x22>
    147c:	81 e0       	ldi	r24, 0x01	; 1
    147e:	01 c0       	rjmp	.+2      	; 0x1482 <state_sleep+0x24>
    1480:	84 e0       	ldi	r24, 0x04	; 4
    1482:	80 93 6e 06 	sts	0x066E, r24
    1486:	08 95       	ret

00001488 <state_idle>:
    1488:	80 91 4f 06 	lds	r24, 0x064F
    148c:	88 23       	and	r24, r24
    148e:	19 f0       	breq	.+6      	; 0x1496 <state_idle+0xe>
    1490:	10 92 6e 06 	sts	0x066E, r1
    1494:	08 95       	ret
    1496:	80 91 de 06 	lds	r24, 0x06DE
    149a:	88 23       	and	r24, r24
    149c:	11 f0       	breq	.+4      	; 0x14a2 <state_idle+0x1a>
    149e:	81 e0       	ldi	r24, 0x01	; 1
    14a0:	01 c0       	rjmp	.+2      	; 0x14a4 <state_idle+0x1c>
    14a2:	84 e0       	ldi	r24, 0x04	; 4
    14a4:	80 93 6e 06 	sts	0x066E, r24
    14a8:	08 95       	ret

000014aa <main>:
    14aa:	10 92 0a 01 	sts	0x010A, r1
    14ae:	10 92 6d 06 	sts	0x066D, r1
    14b2:	85 e0       	ldi	r24, 0x05	; 5
    14b4:	80 93 6f 06 	sts	0x066F, r24
    14b8:	80 93 6e 06 	sts	0x066E, r24
    14bc:	10 92 71 06 	sts	0x0671, r1
    14c0:	10 92 70 06 	sts	0x0670, r1
    14c4:	10 92 75 06 	sts	0x0675, r1
    14c8:	10 92 73 06 	sts	0x0673, r1
    14cc:	10 92 72 06 	sts	0x0672, r1
    14d0:	83 e0       	ldi	r24, 0x03	; 3
    14d2:	80 93 dc 06 	sts	0x06DC, r24
    14d6:	0e 94 1b 04 	call	0x836	; 0x836 <ee_read_logger>
    14da:	88 e7       	ldi	r24, 0x78	; 120
    14dc:	96 e0       	ldi	r25, 0x06	; 6
    14de:	0e 94 69 0e 	call	0x1cd2	; 0x1cd2 <measure_clear>
    14e2:	8f ed       	ldi	r24, 0xDF	; 223
    14e4:	96 e0       	ldi	r25, 0x06	; 6
    14e6:	90 93 f1 06 	sts	0x06F1, r25
    14ea:	80 93 f0 06 	sts	0x06F0, r24
    14ee:	10 92 61 06 	sts	0x0661, r1
    14f2:	10 92 4f 06 	sts	0x064F, r1
    14f6:	10 92 de 06 	sts	0x06DE, r1
    14fa:	10 92 dd 06 	sts	0x06DD, r1
    14fe:	10 92 ec 06 	sts	0x06EC, r1
    1502:	10 92 6c 06 	sts	0x066C, r1
    1506:	10 92 f2 06 	sts	0x06F2, r1
    150a:	10 92 5f 06 	sts	0x065F, r1
    150e:	81 e0       	ldi	r24, 0x01	; 1
    1510:	80 93 ed 06 	sts	0x06ED, r24
    1514:	10 92 52 06 	sts	0x0652, r1
    1518:	10 92 53 06 	sts	0x0653, r1
    151c:	10 92 54 06 	sts	0x0654, r1
    1520:	80 93 58 06 	sts	0x0658, r24
    1524:	80 93 59 06 	sts	0x0659, r24
    1528:	8f e0       	ldi	r24, 0x0F	; 15
    152a:	80 93 5a 06 	sts	0x065A, r24
    152e:	80 e0       	ldi	r24, 0x00	; 0
    1530:	9e e8       	ldi	r25, 0x8E	; 142
    1532:	a4 ea       	ldi	r26, 0xA4	; 164
    1534:	b4 e5       	ldi	r27, 0x54	; 84
    1536:	80 93 5b 06 	sts	0x065B, r24
    153a:	90 93 5c 06 	sts	0x065C, r25
    153e:	a0 93 5d 06 	sts	0x065D, r26
    1542:	b0 93 5e 06 	sts	0x065E, r27
    1546:	0e 94 89 0c 	call	0x1912	; 0x1912 <RTC_init>
    154a:	10 92 4e 06 	sts	0x064E, r1
    154e:	10 92 f2 06 	sts	0x06F2, r1
    1552:	10 92 60 06 	sts	0x0660, r1
    1556:	8f ec       	ldi	r24, 0xCF	; 207
    1558:	90 e0       	ldi	r25, 0x00	; 0
    155a:	90 93 51 06 	sts	0x0651, r25
    155e:	80 93 50 06 	sts	0x0650, r24
    1562:	0e 94 82 12 	call	0x2504	; 0x2504 <USART0_init>
    1566:	0e 94 9e 10 	call	0x213c	; 0x213c <init_FSM>
    156a:	78 94       	sei
    156c:	ca e0       	ldi	r28, 0x0A	; 10
    156e:	64 e8       	ldi	r22, 0x84	; 132
    1570:	73 e0       	ldi	r23, 0x03	; 3
    1572:	88 e0       	ldi	r24, 0x08	; 8
    1574:	90 e0       	ldi	r25, 0x00	; 0
    1576:	0e 94 2d 05 	call	0xa5a	; 0xa5a <calcVI>
    157a:	c1 50       	subi	r28, 0x01	; 1
    157c:	c1 f7       	brne	.-16     	; 0x156e <main+0xc4>
    157e:	d1 e0       	ldi	r29, 0x01	; 1
    1580:	80 91 6d 06 	lds	r24, 0x066D
    1584:	84 36       	cpi	r24, 0x64	; 100
    1586:	21 f4       	brne	.+8      	; 0x1590 <main+0xe6>
    1588:	d0 93 ec 06 	sts	0x06EC, r29
    158c:	10 92 6d 06 	sts	0x066D, r1
    1590:	80 91 61 06 	lds	r24, 0x0661
    1594:	81 30       	cpi	r24, 0x01	; 1
    1596:	89 f4       	brne	.+34     	; 0x15ba <main+0x110>
    1598:	e0 91 6e 06 	lds	r30, 0x066E
    159c:	f0 e0       	ldi	r31, 0x00	; 0
    159e:	ee 0f       	add	r30, r30
    15a0:	ff 1f       	adc	r31, r31
    15a2:	e0 50       	subi	r30, 0x00	; 0
    15a4:	fe 4f       	sbci	r31, 0xFE	; 254
    15a6:	01 90       	ld	r0, Z+
    15a8:	f0 81       	ld	r31, Z
    15aa:	e0 2d       	mov	r30, r0
    15ac:	19 95       	eicall
    15ae:	10 92 61 06 	sts	0x0661, r1
    15b2:	80 91 6e 06 	lds	r24, 0x066E
    15b6:	80 93 6f 06 	sts	0x066F, r24
    15ba:	c0 91 f2 06 	lds	r28, 0x06F2
    15be:	c1 30       	cpi	r28, 0x01	; 1
    15c0:	41 f5       	brne	.+80     	; 0x1612 <main+0x168>
    15c2:	80 91 4e 06 	lds	r24, 0x064E
    15c6:	e0 91 60 06 	lds	r30, 0x0660
    15ca:	f0 e0       	ldi	r31, 0x00	; 0
    15cc:	ee 59       	subi	r30, 0x9E	; 158
    15ce:	f9 4f       	sbci	r31, 0xF9	; 249
    15d0:	80 83       	st	Z, r24
    15d2:	0e 94 94 12 	call	0x2528	; 0x2528 <USART0_set>
    15d6:	90 91 60 06 	lds	r25, 0x0660
    15da:	81 e0       	ldi	r24, 0x01	; 1
    15dc:	89 0f       	add	r24, r25
    15de:	80 93 60 06 	sts	0x0660, r24
    15e2:	80 91 4e 06 	lds	r24, 0x064E
    15e6:	88 30       	cpi	r24, 0x08	; 8
    15e8:	21 f4       	brne	.+8      	; 0x15f2 <main+0x148>
    15ea:	91 50       	subi	r25, 0x01	; 1
    15ec:	90 93 60 06 	sts	0x0660, r25
    15f0:	0e c0       	rjmp	.+28     	; 0x160e <main+0x164>
    15f2:	8d 30       	cpi	r24, 0x0D	; 13
    15f4:	61 f4       	brne	.+24     	; 0x160e <main+0x164>
    15f6:	83 e0       	ldi	r24, 0x03	; 3
    15f8:	93 e0       	ldi	r25, 0x03	; 3
    15fa:	0e 94 9b 12 	call	0x2536	; 0x2536 <USART0_print>
    15fe:	e0 91 60 06 	lds	r30, 0x0660
    1602:	f0 e0       	ldi	r31, 0x00	; 0
    1604:	ef 59       	subi	r30, 0x9F	; 159
    1606:	f9 4f       	sbci	r31, 0xF9	; 249
    1608:	10 82       	st	Z, r1
    160a:	c0 93 4f 06 	sts	0x064F, r28
    160e:	10 92 f2 06 	sts	0x06F2, r1
    1612:	40 91 ec 06 	lds	r20, 0x06EC
    1616:	41 30       	cpi	r20, 0x01	; 1
    1618:	09 f0       	breq	.+2      	; 0x161c <main+0x172>
    161a:	b2 cf       	rjmp	.-156    	; 0x1580 <main+0xd6>
    161c:	80 91 70 06 	lds	r24, 0x0670
    1620:	90 91 71 06 	lds	r25, 0x0671
    1624:	01 96       	adiw	r24, 0x01	; 1
    1626:	90 93 71 06 	sts	0x0671, r25
    162a:	80 93 70 06 	sts	0x0670, r24
    162e:	20 91 74 06 	lds	r18, 0x0674
    1632:	22 23       	and	r18, r18
    1634:	61 f0       	breq	.+24     	; 0x164e <main+0x1a4>
    1636:	20 91 77 06 	lds	r18, 0x0677
    163a:	30 e0       	ldi	r19, 0x00	; 0
    163c:	82 17       	cp	r24, r18
    163e:	93 07       	cpc	r25, r19
    1640:	31 f4       	brne	.+12     	; 0x164e <main+0x1a4>
    1642:	40 93 de 06 	sts	0x06DE, r20
    1646:	10 92 71 06 	sts	0x0671, r1
    164a:	10 92 70 06 	sts	0x0670, r1
    164e:	10 92 ec 06 	sts	0x06EC, r1
    1652:	96 cf       	rjmp	.-212    	; 0x1580 <main+0xd6>

00001654 <debug_RTC_print_Time>:
    1654:	cf 93       	push	r28
    1656:	df 93       	push	r29
    1658:	ec 01       	movw	r28, r24
    165a:	41 e0       	ldi	r20, 0x01	; 1
    165c:	66 e4       	ldi	r22, 0x46	; 70
    165e:	73 e0       	ldi	r23, 0x03	; 3
    1660:	cb 01       	movw	r24, r22
    1662:	0e 94 8d 02 	call	0x51a	; 0x51a <debug_print>
    1666:	41 e0       	ldi	r20, 0x01	; 1
    1668:	66 e0       	ldi	r22, 0x06	; 6
    166a:	73 e0       	ldi	r23, 0x03	; 3
    166c:	cb 01       	movw	r24, r22
    166e:	0e 94 8d 02 	call	0x51a	; 0x51a <debug_print>
    1672:	40 e0       	ldi	r20, 0x00	; 0
    1674:	66 e4       	ldi	r22, 0x46	; 70
    1676:	73 e0       	ldi	r23, 0x03	; 3
    1678:	86 e1       	ldi	r24, 0x16	; 22
    167a:	93 e0       	ldi	r25, 0x03	; 3
    167c:	0e 94 8d 02 	call	0x51a	; 0x51a <debug_print>
    1680:	be 01       	movw	r22, r28
    1682:	6d 5f       	subi	r22, 0xFD	; 253
    1684:	7f 4f       	sbci	r23, 0xFF	; 255
    1686:	41 e0       	ldi	r20, 0x01	; 1
    1688:	83 e0       	ldi	r24, 0x03	; 3
    168a:	94 e0       	ldi	r25, 0x04	; 4
    168c:	0e 94 8d 02 	call	0x51a	; 0x51a <debug_print>
    1690:	48 81       	ld	r20, Y
    1692:	50 e0       	ldi	r21, 0x00	; 0
    1694:	21 e0       	ldi	r18, 0x01	; 1
    1696:	63 e0       	ldi	r22, 0x03	; 3
    1698:	74 e0       	ldi	r23, 0x04	; 4
    169a:	8f e1       	ldi	r24, 0x1F	; 31
    169c:	93 e0       	ldi	r25, 0x03	; 3
    169e:	0e 94 f9 02 	call	0x5f2	; 0x5f2 <debug_printu>
    16a2:	49 81       	ldd	r20, Y+1	; 0x01
    16a4:	50 e0       	ldi	r21, 0x00	; 0
    16a6:	21 e0       	ldi	r18, 0x01	; 1
    16a8:	63 e0       	ldi	r22, 0x03	; 3
    16aa:	74 e0       	ldi	r23, 0x04	; 4
    16ac:	88 e2       	ldi	r24, 0x28	; 40
    16ae:	93 e0       	ldi	r25, 0x03	; 3
    16b0:	0e 94 f9 02 	call	0x5f2	; 0x5f2 <debug_printu>
    16b4:	4a 81       	ldd	r20, Y+2	; 0x02
    16b6:	50 e0       	ldi	r21, 0x00	; 0
    16b8:	21 e0       	ldi	r18, 0x01	; 1
    16ba:	63 e0       	ldi	r22, 0x03	; 3
    16bc:	74 e0       	ldi	r23, 0x04	; 4
    16be:	81 e3       	ldi	r24, 0x31	; 49
    16c0:	93 e0       	ldi	r25, 0x03	; 3
    16c2:	0e 94 f9 02 	call	0x5f2	; 0x5f2 <debug_printu>
    16c6:	4e 81       	ldd	r20, Y+6	; 0x06
    16c8:	50 e0       	ldi	r21, 0x00	; 0
    16ca:	21 e0       	ldi	r18, 0x01	; 1
    16cc:	63 e0       	ldi	r22, 0x03	; 3
    16ce:	74 e0       	ldi	r23, 0x04	; 4
    16d0:	89 e3       	ldi	r24, 0x39	; 57
    16d2:	93 e0       	ldi	r25, 0x03	; 3
    16d4:	0e 94 f9 02 	call	0x5f2	; 0x5f2 <debug_printu>
    16d8:	4f 81       	ldd	r20, Y+7	; 0x07
    16da:	50 e0       	ldi	r21, 0x00	; 0
    16dc:	21 e0       	ldi	r18, 0x01	; 1
    16de:	63 e0       	ldi	r22, 0x03	; 3
    16e0:	74 e0       	ldi	r23, 0x04	; 4
    16e2:	8f e3       	ldi	r24, 0x3F	; 63
    16e4:	93 e0       	ldi	r25, 0x03	; 3
    16e6:	0e 94 f9 02 	call	0x5f2	; 0x5f2 <debug_printu>
    16ea:	48 85       	ldd	r20, Y+8	; 0x08
    16ec:	50 e0       	ldi	r21, 0x00	; 0
    16ee:	21 e0       	ldi	r18, 0x01	; 1
    16f0:	63 e0       	ldi	r22, 0x03	; 3
    16f2:	74 e0       	ldi	r23, 0x04	; 4
    16f4:	87 e4       	ldi	r24, 0x47	; 71
    16f6:	93 e0       	ldi	r25, 0x03	; 3
    16f8:	0e 94 f9 02 	call	0x5f2	; 0x5f2 <debug_printu>
    16fc:	41 e0       	ldi	r20, 0x01	; 1
    16fe:	66 e0       	ldi	r22, 0x06	; 6
    1700:	73 e0       	ldi	r23, 0x03	; 3
    1702:	cb 01       	movw	r24, r22
    1704:	0e 94 8d 02 	call	0x51a	; 0x51a <debug_print>
    1708:	41 e0       	ldi	r20, 0x01	; 1
    170a:	66 e4       	ldi	r22, 0x46	; 70
    170c:	73 e0       	ldi	r23, 0x03	; 3
    170e:	cb 01       	movw	r24, r22
    1710:	df 91       	pop	r29
    1712:	cf 91       	pop	r28
    1714:	0c 94 8d 02 	jmp	0x51a	; 0x51a <debug_print>

00001718 <debug_RTC_timestamp_calc>:
    1718:	8f 92       	push	r8
    171a:	9f 92       	push	r9
    171c:	bf 92       	push	r11
    171e:	cf 92       	push	r12
    1720:	df 92       	push	r13
    1722:	ef 92       	push	r14
    1724:	ff 92       	push	r15
    1726:	0f 93       	push	r16
    1728:	1f 93       	push	r17
    172a:	cf 93       	push	r28
    172c:	df 93       	push	r29
    172e:	4c 01       	movw	r8, r24
    1730:	eb 01       	movw	r28, r22
    1732:	b4 2e       	mov	r11, r20
    1734:	68 01       	movw	r12, r16
    1736:	79 01       	movw	r14, r18
    1738:	41 e0       	ldi	r20, 0x01	; 1
    173a:	66 e4       	ldi	r22, 0x46	; 70
    173c:	73 e0       	ldi	r23, 0x03	; 3
    173e:	cb 01       	movw	r24, r22
    1740:	0e 94 8d 02 	call	0x51a	; 0x51a <debug_print>
    1744:	40 e0       	ldi	r20, 0x00	; 0
    1746:	66 e0       	ldi	r22, 0x06	; 6
    1748:	73 e0       	ldi	r23, 0x03	; 3
    174a:	cb 01       	movw	r24, r22
    174c:	0e 94 8d 02 	call	0x51a	; 0x51a <debug_print>
    1750:	40 e0       	ldi	r20, 0x00	; 0
    1752:	66 e0       	ldi	r22, 0x06	; 6
    1754:	73 e0       	ldi	r23, 0x03	; 3
    1756:	cb 01       	movw	r24, r22
    1758:	0e 94 8d 02 	call	0x51a	; 0x51a <debug_print>
    175c:	41 e0       	ldi	r20, 0x01	; 1
    175e:	66 e0       	ldi	r22, 0x06	; 6
    1760:	73 e0       	ldi	r23, 0x03	; 3
    1762:	cb 01       	movw	r24, r22
    1764:	0e 94 8d 02 	call	0x51a	; 0x51a <debug_print>
    1768:	f4 01       	movw	r30, r8
    176a:	40 85       	ldd	r20, Z+8	; 0x08
    176c:	50 e0       	ldi	r21, 0x00	; 0
    176e:	20 e0       	ldi	r18, 0x00	; 0
    1770:	63 e0       	ldi	r22, 0x03	; 3
    1772:	74 e0       	ldi	r23, 0x04	; 4
    1774:	8e e4       	ldi	r24, 0x4E	; 78
    1776:	93 e0       	ldi	r25, 0x03	; 3
    1778:	0e 94 f9 02 	call	0x5f2	; 0x5f2 <debug_printu>
    177c:	48 85       	ldd	r20, Y+8	; 0x08
    177e:	50 e0       	ldi	r21, 0x00	; 0
    1780:	20 e0       	ldi	r18, 0x00	; 0
    1782:	63 e0       	ldi	r22, 0x03	; 3
    1784:	74 e0       	ldi	r23, 0x04	; 4
    1786:	8a e5       	ldi	r24, 0x5A	; 90
    1788:	93 e0       	ldi	r25, 0x03	; 3
    178a:	0e 94 f9 02 	call	0x5f2	; 0x5f2 <debug_printu>
    178e:	48 85       	ldd	r20, Y+8	; 0x08
    1790:	50 e0       	ldi	r21, 0x00	; 0
    1792:	f4 01       	movw	r30, r8
    1794:	80 85       	ldd	r24, Z+8	; 0x08
    1796:	48 1b       	sub	r20, r24
    1798:	51 09       	sbc	r21, r1
    179a:	21 e0       	ldi	r18, 0x01	; 1
    179c:	63 e0       	ldi	r22, 0x03	; 3
    179e:	74 e0       	ldi	r23, 0x04	; 4
    17a0:	85 e6       	ldi	r24, 0x65	; 101
    17a2:	93 e0       	ldi	r25, 0x03	; 3
    17a4:	0e 94 f9 02 	call	0x5f2	; 0x5f2 <debug_printu>
    17a8:	f4 01       	movw	r30, r8
    17aa:	47 81       	ldd	r20, Z+7	; 0x07
    17ac:	50 e0       	ldi	r21, 0x00	; 0
    17ae:	20 e0       	ldi	r18, 0x00	; 0
    17b0:	63 e0       	ldi	r22, 0x03	; 3
    17b2:	74 e0       	ldi	r23, 0x04	; 4
    17b4:	82 e7       	ldi	r24, 0x72	; 114
    17b6:	93 e0       	ldi	r25, 0x03	; 3
    17b8:	0e 94 f9 02 	call	0x5f2	; 0x5f2 <debug_printu>
    17bc:	4f 81       	ldd	r20, Y+7	; 0x07
    17be:	50 e0       	ldi	r21, 0x00	; 0
    17c0:	20 e0       	ldi	r18, 0x00	; 0
    17c2:	63 e0       	ldi	r22, 0x03	; 3
    17c4:	74 e0       	ldi	r23, 0x04	; 4
    17c6:	8f e7       	ldi	r24, 0x7F	; 127
    17c8:	93 e0       	ldi	r25, 0x03	; 3
    17ca:	0e 94 f9 02 	call	0x5f2	; 0x5f2 <debug_printu>
    17ce:	4f 81       	ldd	r20, Y+7	; 0x07
    17d0:	50 e0       	ldi	r21, 0x00	; 0
    17d2:	f4 01       	movw	r30, r8
    17d4:	87 81       	ldd	r24, Z+7	; 0x07
    17d6:	48 1b       	sub	r20, r24
    17d8:	51 09       	sbc	r21, r1
    17da:	21 e0       	ldi	r18, 0x01	; 1
    17dc:	63 e0       	ldi	r22, 0x03	; 3
    17de:	74 e0       	ldi	r23, 0x04	; 4
    17e0:	85 e6       	ldi	r24, 0x65	; 101
    17e2:	93 e0       	ldi	r25, 0x03	; 3
    17e4:	0e 94 f9 02 	call	0x5f2	; 0x5f2 <debug_printu>
    17e8:	f4 01       	movw	r30, r8
    17ea:	46 81       	ldd	r20, Z+6	; 0x06
    17ec:	50 e0       	ldi	r21, 0x00	; 0
    17ee:	20 e0       	ldi	r18, 0x00	; 0
    17f0:	63 e0       	ldi	r22, 0x03	; 3
    17f2:	74 e0       	ldi	r23, 0x04	; 4
    17f4:	8b e8       	ldi	r24, 0x8B	; 139
    17f6:	93 e0       	ldi	r25, 0x03	; 3
    17f8:	0e 94 f9 02 	call	0x5f2	; 0x5f2 <debug_printu>
    17fc:	4e 81       	ldd	r20, Y+6	; 0x06
    17fe:	50 e0       	ldi	r21, 0x00	; 0
    1800:	20 e0       	ldi	r18, 0x00	; 0
    1802:	63 e0       	ldi	r22, 0x03	; 3
    1804:	74 e0       	ldi	r23, 0x04	; 4
    1806:	86 e9       	ldi	r24, 0x96	; 150
    1808:	93 e0       	ldi	r25, 0x03	; 3
    180a:	0e 94 f9 02 	call	0x5f2	; 0x5f2 <debug_printu>
    180e:	4e 81       	ldd	r20, Y+6	; 0x06
    1810:	50 e0       	ldi	r21, 0x00	; 0
    1812:	f4 01       	movw	r30, r8
    1814:	86 81       	ldd	r24, Z+6	; 0x06
    1816:	48 1b       	sub	r20, r24
    1818:	51 09       	sbc	r21, r1
    181a:	21 e0       	ldi	r18, 0x01	; 1
    181c:	63 e0       	ldi	r22, 0x03	; 3
    181e:	74 e0       	ldi	r23, 0x04	; 4
    1820:	85 e6       	ldi	r24, 0x65	; 101
    1822:	93 e0       	ldi	r25, 0x03	; 3
    1824:	0e 94 f9 02 	call	0x5f2	; 0x5f2 <debug_printu>
    1828:	40 e0       	ldi	r20, 0x00	; 0
    182a:	66 e0       	ldi	r22, 0x06	; 6
    182c:	73 e0       	ldi	r23, 0x03	; 3
    182e:	cb 01       	movw	r24, r22
    1830:	0e 94 8d 02 	call	0x51a	; 0x51a <debug_print>
    1834:	40 e0       	ldi	r20, 0x00	; 0
    1836:	66 e0       	ldi	r22, 0x06	; 6
    1838:	73 e0       	ldi	r23, 0x03	; 3
    183a:	cb 01       	movw	r24, r22
    183c:	0e 94 8d 02 	call	0x51a	; 0x51a <debug_print>
    1840:	41 e0       	ldi	r20, 0x01	; 1
    1842:	66 e0       	ldi	r22, 0x06	; 6
    1844:	73 e0       	ldi	r23, 0x03	; 3
    1846:	cb 01       	movw	r24, r22
    1848:	0e 94 8d 02 	call	0x51a	; 0x51a <debug_print>
    184c:	c7 01       	movw	r24, r14
    184e:	b6 01       	movw	r22, r12
    1850:	0e 94 9c 15 	call	0x2b38	; 0x2b38 <__fixunssfsi>
    1854:	9b 01       	movw	r18, r22
    1856:	ac 01       	movw	r20, r24
    1858:	01 e0       	ldi	r16, 0x01	; 1
    185a:	60 ea       	ldi	r22, 0xA0	; 160
    185c:	73 e0       	ldi	r23, 0x03	; 3
    185e:	82 ea       	ldi	r24, 0xA2	; 162
    1860:	93 e0       	ldi	r25, 0x03	; 3
    1862:	0e 94 34 03 	call	0x668	; 0x668 <debug_printl>
    1866:	20 91 5b 06 	lds	r18, 0x065B
    186a:	30 91 5c 06 	lds	r19, 0x065C
    186e:	40 91 5d 06 	lds	r20, 0x065D
    1872:	50 91 5e 06 	lds	r21, 0x065E
    1876:	60 ea       	ldi	r22, 0xA0	; 160
    1878:	73 e0       	ldi	r23, 0x03	; 3
    187a:	84 eb       	ldi	r24, 0xB4	; 180
    187c:	93 e0       	ldi	r25, 0x03	; 3
    187e:	0e 94 34 03 	call	0x668	; 0x668 <debug_printl>
    1882:	29 85       	ldd	r18, Y+9	; 0x09
    1884:	3a 85       	ldd	r19, Y+10	; 0x0a
    1886:	4b 85       	ldd	r20, Y+11	; 0x0b
    1888:	5c 85       	ldd	r21, Y+12	; 0x0c
    188a:	60 ea       	ldi	r22, 0xA0	; 160
    188c:	73 e0       	ldi	r23, 0x03	; 3
    188e:	85 ec       	ldi	r24, 0xC5	; 197
    1890:	93 e0       	ldi	r25, 0x03	; 3
    1892:	0e 94 34 03 	call	0x668	; 0x668 <debug_printl>
    1896:	40 e0       	ldi	r20, 0x00	; 0
    1898:	66 e0       	ldi	r22, 0x06	; 6
    189a:	73 e0       	ldi	r23, 0x03	; 3
    189c:	cb 01       	movw	r24, r22
    189e:	0e 94 8d 02 	call	0x51a	; 0x51a <debug_print>
    18a2:	40 e0       	ldi	r20, 0x00	; 0
    18a4:	66 e0       	ldi	r22, 0x06	; 6
    18a6:	73 e0       	ldi	r23, 0x03	; 3
    18a8:	cb 01       	movw	r24, r22
    18aa:	0e 94 8d 02 	call	0x51a	; 0x51a <debug_print>
    18ae:	41 e0       	ldi	r20, 0x01	; 1
    18b0:	66 e0       	ldi	r22, 0x06	; 6
    18b2:	73 e0       	ldi	r23, 0x03	; 3
    18b4:	cb 01       	movw	r24, r22
    18b6:	0e 94 8d 02 	call	0x51a	; 0x51a <debug_print>
    18ba:	4b 2d       	mov	r20, r11
    18bc:	50 e0       	ldi	r21, 0x00	; 0
    18be:	21 e0       	ldi	r18, 0x01	; 1
    18c0:	63 e0       	ldi	r22, 0x03	; 3
    18c2:	74 e0       	ldi	r23, 0x04	; 4
    18c4:	87 ed       	ldi	r24, 0xD7	; 215
    18c6:	93 e0       	ldi	r25, 0x03	; 3
    18c8:	0e 94 f9 02 	call	0x5f2	; 0x5f2 <debug_printu>
    18cc:	40 e0       	ldi	r20, 0x00	; 0
    18ce:	66 e0       	ldi	r22, 0x06	; 6
    18d0:	73 e0       	ldi	r23, 0x03	; 3
    18d2:	cb 01       	movw	r24, r22
    18d4:	0e 94 8d 02 	call	0x51a	; 0x51a <debug_print>
    18d8:	40 e0       	ldi	r20, 0x00	; 0
    18da:	66 e0       	ldi	r22, 0x06	; 6
    18dc:	73 e0       	ldi	r23, 0x03	; 3
    18de:	cb 01       	movw	r24, r22
    18e0:	0e 94 8d 02 	call	0x51a	; 0x51a <debug_print>
    18e4:	41 e0       	ldi	r20, 0x01	; 1
    18e6:	66 e0       	ldi	r22, 0x06	; 6
    18e8:	73 e0       	ldi	r23, 0x03	; 3
    18ea:	cb 01       	movw	r24, r22
    18ec:	0e 94 8d 02 	call	0x51a	; 0x51a <debug_print>
    18f0:	41 e0       	ldi	r20, 0x01	; 1
    18f2:	66 e4       	ldi	r22, 0x46	; 70
    18f4:	73 e0       	ldi	r23, 0x03	; 3
    18f6:	cb 01       	movw	r24, r22
    18f8:	df 91       	pop	r29
    18fa:	cf 91       	pop	r28
    18fc:	1f 91       	pop	r17
    18fe:	0f 91       	pop	r16
    1900:	ff 90       	pop	r15
    1902:	ef 90       	pop	r14
    1904:	df 90       	pop	r13
    1906:	cf 90       	pop	r12
    1908:	bf 90       	pop	r11
    190a:	9f 90       	pop	r9
    190c:	8f 90       	pop	r8
    190e:	0c 94 8d 02 	jmp	0x51a	; 0x51a <debug_print>

00001912 <RTC_init>:
    1912:	0c 94 06 11 	jmp	0x220c	; 0x220c <TWI_init>

00001916 <is_leap_year>:
    1916:	9c 01       	movw	r18, r24
    1918:	83 70       	andi	r24, 0x03	; 3
    191a:	99 27       	eor	r25, r25
    191c:	89 2b       	or	r24, r25
    191e:	91 f4       	brne	.+36     	; 0x1944 <is_leap_year+0x2e>
    1920:	c9 01       	movw	r24, r18
    1922:	64 e6       	ldi	r22, 0x64	; 100
    1924:	70 e0       	ldi	r23, 0x00	; 0
    1926:	0e 94 4f 14 	call	0x289e	; 0x289e <__udivmodhi4>
    192a:	89 2b       	or	r24, r25
    192c:	49 f4       	brne	.+18     	; 0x1940 <is_leap_year+0x2a>
    192e:	c9 01       	movw	r24, r18
    1930:	60 e9       	ldi	r22, 0x90	; 144
    1932:	71 e0       	ldi	r23, 0x01	; 1
    1934:	0e 94 4f 14 	call	0x289e	; 0x289e <__udivmodhi4>
    1938:	21 e0       	ldi	r18, 0x01	; 1
    193a:	89 2b       	or	r24, r25
    193c:	21 f0       	breq	.+8      	; 0x1946 <is_leap_year+0x30>
    193e:	02 c0       	rjmp	.+4      	; 0x1944 <is_leap_year+0x2e>
    1940:	21 e0       	ldi	r18, 0x01	; 1
    1942:	01 c0       	rjmp	.+2      	; 0x1946 <is_leap_year+0x30>
    1944:	20 e0       	ldi	r18, 0x00	; 0
    1946:	82 2f       	mov	r24, r18
    1948:	08 95       	ret

0000194a <rtc_time_to_epoch>:
    194a:	3f 92       	push	r3
    194c:	4f 92       	push	r4
    194e:	5f 92       	push	r5
    1950:	6f 92       	push	r6
    1952:	7f 92       	push	r7
    1954:	8f 92       	push	r8
    1956:	9f 92       	push	r9
    1958:	af 92       	push	r10
    195a:	bf 92       	push	r11
    195c:	cf 92       	push	r12
    195e:	df 92       	push	r13
    1960:	ef 92       	push	r14
    1962:	ff 92       	push	r15
    1964:	0f 93       	push	r16
    1966:	1f 93       	push	r17
    1968:	cf 93       	push	r28
    196a:	df 93       	push	r29
    196c:	cd b7       	in	r28, 0x3d	; 61
    196e:	de b7       	in	r29, 0x3e	; 62
    1970:	67 97       	sbiw	r28, 0x17	; 23
    1972:	0f b6       	in	r0, 0x3f	; 63
    1974:	f8 94       	cli
    1976:	de bf       	out	0x3e, r29	; 62
    1978:	0f be       	out	0x3f, r0	; 63
    197a:	cd bf       	out	0x3d, r28	; 61
    197c:	6c 01       	movw	r12, r24
    197e:	8b 01       	movw	r16, r22
    1980:	86 e1       	ldi	r24, 0x16	; 22
    1982:	e8 e2       	ldi	r30, 0x28	; 40
    1984:	f2 e0       	ldi	r31, 0x02	; 2
    1986:	de 01       	movw	r26, r28
    1988:	11 96       	adiw	r26, 0x01	; 1
    198a:	01 90       	ld	r0, Z+
    198c:	0d 92       	st	X+, r0
    198e:	8a 95       	dec	r24
    1990:	e1 f7       	brne	.-8      	; 0x198a <rtc_time_to_epoch+0x40>
    1992:	fb 01       	movw	r30, r22
    1994:	80 84       	ldd	r8, Z+8	; 0x08
    1996:	f6 01       	movw	r30, r12
    1998:	40 84       	ldd	r4, Z+8	; 0x08
    199a:	91 2c       	mov	r9, r1
    199c:	51 2c       	mov	r5, r1
    199e:	c4 01       	movw	r24, r8
    19a0:	84 19       	sub	r24, r4
    19a2:	95 09       	sbc	r25, r5
    19a4:	2d e6       	ldi	r18, 0x6D	; 109
    19a6:	31 e0       	ldi	r19, 0x01	; 1
    19a8:	82 9f       	mul	r24, r18
    19aa:	70 01       	movw	r14, r0
    19ac:	83 9f       	mul	r24, r19
    19ae:	f0 0c       	add	r15, r0
    19b0:	92 9f       	mul	r25, r18
    19b2:	f0 0c       	add	r15, r0
    19b4:	11 24       	eor	r1, r1
    19b6:	02 97       	sbiw	r24, 0x02	; 2
    19b8:	bc f0       	brlt	.+46     	; 0x19e8 <rtc_time_to_epoch+0x9e>
    19ba:	32 01       	movw	r6, r4
    19bc:	66 0c       	add	r6, r6
    19be:	77 1c       	adc	r7, r7
    19c0:	a1 2c       	mov	r10, r1
    19c2:	b1 2c       	mov	r11, r1
    19c4:	31 2c       	mov	r3, r1
    19c6:	c5 01       	movw	r24, r10
    19c8:	84 0d       	add	r24, r4
    19ca:	95 1d       	adc	r25, r5
    19cc:	88 15       	cp	r24, r8
    19ce:	99 05       	cpc	r25, r9
    19d0:	60 f4       	brcc	.+24     	; 0x19ea <rtc_time_to_epoch+0xa0>
    19d2:	c5 01       	movw	r24, r10
    19d4:	86 0d       	add	r24, r6
    19d6:	97 1d       	adc	r25, r7
    19d8:	0e 94 8b 0c 	call	0x1916	; 0x1916 <is_leap_year>
    19dc:	81 11       	cpse	r24, r1
    19de:	33 94       	inc	r3
    19e0:	ff ef       	ldi	r31, 0xFF	; 255
    19e2:	af 1a       	sub	r10, r31
    19e4:	bf 0a       	sbc	r11, r31
    19e6:	ef cf       	rjmp	.-34     	; 0x19c6 <rtc_time_to_epoch+0x7c>
    19e8:	31 2c       	mov	r3, r1
    19ea:	f8 01       	movw	r30, r16
    19ec:	27 81       	ldd	r18, Z+7	; 0x07
    19ee:	23 30       	cpi	r18, 0x03	; 3
    19f0:	58 f0       	brcs	.+22     	; 0x1a08 <rtc_time_to_epoch+0xbe>
    19f2:	c4 01       	movw	r24, r8
    19f4:	2f 8b       	std	Y+23, r18	; 0x17
    19f6:	0e 94 8b 0c 	call	0x1916	; 0x1916 <is_leap_year>
    19fa:	2f 89       	ldd	r18, Y+23	; 0x17
    19fc:	88 23       	and	r24, r24
    19fe:	31 f0       	breq	.+12     	; 0x1a0c <rtc_time_to_epoch+0xc2>
    1a00:	33 94       	inc	r3
    1a02:	e3 0c       	add	r14, r3
    1a04:	f1 1c       	adc	r15, r1
    1a06:	02 c0       	rjmp	.+4      	; 0x1a0c <rtc_time_to_epoch+0xc2>
    1a08:	22 30       	cpi	r18, 0x02	; 2
    1a0a:	59 f4       	brne	.+22     	; 0x1a22 <rtc_time_to_epoch+0xd8>
    1a0c:	fe 01       	movw	r30, r28
    1a0e:	31 96       	adiw	r30, 0x01	; 1
    1a10:	e2 0f       	add	r30, r18
    1a12:	f1 1d       	adc	r31, r1
    1a14:	e2 0f       	add	r30, r18
    1a16:	f1 1d       	adc	r31, r1
    1a18:	34 97       	sbiw	r30, 0x04	; 4
    1a1a:	80 81       	ld	r24, Z
    1a1c:	91 81       	ldd	r25, Z+1	; 0x01
    1a1e:	e8 0e       	add	r14, r24
    1a20:	f9 1e       	adc	r15, r25
    1a22:	f8 01       	movw	r30, r16
    1a24:	a6 81       	ldd	r26, Z+6	; 0x06
    1a26:	b0 e0       	ldi	r27, 0x00	; 0
    1a28:	f6 01       	movw	r30, r12
    1a2a:	86 81       	ldd	r24, Z+6	; 0x06
    1a2c:	a8 1b       	sub	r26, r24
    1a2e:	b1 09       	sbc	r27, r1
    1a30:	ae 0d       	add	r26, r14
    1a32:	bf 1d       	adc	r27, r15
    1a34:	20 e8       	ldi	r18, 0x80	; 128
    1a36:	31 e5       	ldi	r19, 0x51	; 81
    1a38:	41 e0       	ldi	r20, 0x01	; 1
    1a3a:	50 e0       	ldi	r21, 0x00	; 0
    1a3c:	0e 94 b1 14 	call	0x2962	; 0x2962 <__muluhisi3>
    1a40:	6b 01       	movw	r12, r22
    1a42:	7c 01       	movw	r14, r24
    1a44:	f8 01       	movw	r30, r16
    1a46:	22 81       	ldd	r18, Z+2	; 0x02
    1a48:	fc e3       	ldi	r31, 0x3C	; 60
    1a4a:	2f 9f       	mul	r18, r31
    1a4c:	90 01       	movw	r18, r0
    1a4e:	11 24       	eor	r1, r1
    1a50:	44 27       	eor	r20, r20
    1a52:	37 fd       	sbrc	r19, 7
    1a54:	40 95       	com	r20
    1a56:	54 2f       	mov	r21, r20
    1a58:	f8 01       	movw	r30, r16
    1a5a:	81 81       	ldd	r24, Z+1	; 0x01
    1a5c:	28 0f       	add	r18, r24
    1a5e:	31 1d       	adc	r19, r1
    1a60:	41 1d       	adc	r20, r1
    1a62:	51 1d       	adc	r21, r1
    1a64:	ac e3       	ldi	r26, 0x3C	; 60
    1a66:	b0 e0       	ldi	r27, 0x00	; 0
    1a68:	0e 94 b1 14 	call	0x2962	; 0x2962 <__muluhisi3>
    1a6c:	20 81       	ld	r18, Z
    1a6e:	62 0f       	add	r22, r18
    1a70:	71 1d       	adc	r23, r1
    1a72:	81 1d       	adc	r24, r1
    1a74:	91 1d       	adc	r25, r1
    1a76:	6c 0d       	add	r22, r12
    1a78:	7d 1d       	adc	r23, r13
    1a7a:	8e 1d       	adc	r24, r14
    1a7c:	9f 1d       	adc	r25, r15
    1a7e:	67 96       	adiw	r28, 0x17	; 23
    1a80:	0f b6       	in	r0, 0x3f	; 63
    1a82:	f8 94       	cli
    1a84:	de bf       	out	0x3e, r29	; 62
    1a86:	0f be       	out	0x3f, r0	; 63
    1a88:	cd bf       	out	0x3d, r28	; 61
    1a8a:	df 91       	pop	r29
    1a8c:	cf 91       	pop	r28
    1a8e:	1f 91       	pop	r17
    1a90:	0f 91       	pop	r16
    1a92:	ff 90       	pop	r15
    1a94:	ef 90       	pop	r14
    1a96:	df 90       	pop	r13
    1a98:	cf 90       	pop	r12
    1a9a:	bf 90       	pop	r11
    1a9c:	af 90       	pop	r10
    1a9e:	9f 90       	pop	r9
    1aa0:	8f 90       	pop	r8
    1aa2:	7f 90       	pop	r7
    1aa4:	6f 90       	pop	r6
    1aa6:	5f 90       	pop	r5
    1aa8:	4f 90       	pop	r4
    1aaa:	3f 90       	pop	r3
    1aac:	08 95       	ret

00001aae <RTC_get_date>:
    1aae:	bf 92       	push	r11
    1ab0:	cf 92       	push	r12
    1ab2:	df 92       	push	r13
    1ab4:	ef 92       	push	r14
    1ab6:	ff 92       	push	r15
    1ab8:	0f 93       	push	r16
    1aba:	1f 93       	push	r17
    1abc:	cf 93       	push	r28
    1abe:	df 93       	push	r29
    1ac0:	cd b7       	in	r28, 0x3d	; 61
    1ac2:	de b7       	in	r29, 0x3e	; 62
    1ac4:	27 97       	sbiw	r28, 0x07	; 7
    1ac6:	0f b6       	in	r0, 0x3f	; 63
    1ac8:	f8 94       	cli
    1aca:	de bf       	out	0x3e, r29	; 62
    1acc:	0f be       	out	0x3f, r0	; 63
    1ace:	cd bf       	out	0x3d, r28	; 61
    1ad0:	8c 01       	movw	r16, r24
    1ad2:	fe 01       	movw	r30, r28
    1ad4:	31 96       	adiw	r30, 0x01	; 1
    1ad6:	ce 01       	movw	r24, r28
    1ad8:	08 96       	adiw	r24, 0x08	; 8
    1ada:	9f 01       	movw	r18, r30
    1adc:	11 92       	st	Z+, r1
    1ade:	e8 17       	cp	r30, r24
    1ae0:	f9 07       	cpc	r31, r25
    1ae2:	e1 f7       	brne	.-8      	; 0x1adc <RTC_get_date+0x2e>
    1ae4:	47 e0       	ldi	r20, 0x07	; 7
    1ae6:	62 e0       	ldi	r22, 0x02	; 2
    1ae8:	82 ea       	ldi	r24, 0xA2	; 162
    1aea:	0e 94 14 12 	call	0x2428	; 0x2428 <TWI_receive>
    1aee:	b8 2e       	mov	r11, r24
    1af0:	4c 81       	ldd	r20, Y+4	; 0x04
    1af2:	44 23       	and	r20, r20
    1af4:	09 f4       	brne	.+2      	; 0x1af8 <RTC_get_date+0x4a>
    1af6:	7f c0       	rjmp	.+254    	; 0x1bf6 <RTC_get_date+0x148>
    1af8:	29 81       	ldd	r18, Y+1	; 0x01
    1afa:	82 2f       	mov	r24, r18
    1afc:	80 77       	andi	r24, 0x70	; 112
    1afe:	86 95       	lsr	r24
    1b00:	86 95       	lsr	r24
    1b02:	86 95       	lsr	r24
    1b04:	98 2f       	mov	r25, r24
    1b06:	99 0f       	add	r25, r25
    1b08:	99 0f       	add	r25, r25
    1b0a:	98 0f       	add	r25, r24
    1b0c:	2f 70       	andi	r18, 0x0F	; 15
    1b0e:	92 0f       	add	r25, r18
    1b10:	d8 01       	movw	r26, r16
    1b12:	9c 93       	st	X, r25
    1b14:	2a 81       	ldd	r18, Y+2	; 0x02
    1b16:	82 2f       	mov	r24, r18
    1b18:	80 77       	andi	r24, 0x70	; 112
    1b1a:	86 95       	lsr	r24
    1b1c:	86 95       	lsr	r24
    1b1e:	86 95       	lsr	r24
    1b20:	98 2f       	mov	r25, r24
    1b22:	99 0f       	add	r25, r25
    1b24:	99 0f       	add	r25, r25
    1b26:	98 0f       	add	r25, r24
    1b28:	2f 70       	andi	r18, 0x0F	; 15
    1b2a:	92 0f       	add	r25, r18
    1b2c:	11 96       	adiw	r26, 0x01	; 1
    1b2e:	9c 93       	st	X, r25
    1b30:	11 97       	sbiw	r26, 0x01	; 1
    1b32:	2b 81       	ldd	r18, Y+3	; 0x03
    1b34:	82 2f       	mov	r24, r18
    1b36:	80 73       	andi	r24, 0x30	; 48
    1b38:	86 95       	lsr	r24
    1b3a:	86 95       	lsr	r24
    1b3c:	86 95       	lsr	r24
    1b3e:	98 2f       	mov	r25, r24
    1b40:	99 0f       	add	r25, r25
    1b42:	99 0f       	add	r25, r25
    1b44:	98 0f       	add	r25, r24
    1b46:	2f 70       	andi	r18, 0x0F	; 15
    1b48:	92 0f       	add	r25, r18
    1b4a:	12 96       	adiw	r26, 0x02	; 2
    1b4c:	9c 93       	st	X, r25
    1b4e:	12 97       	sbiw	r26, 0x02	; 2
    1b50:	2d 81       	ldd	r18, Y+5	; 0x05
    1b52:	27 70       	andi	r18, 0x07	; 7
    1b54:	30 e0       	ldi	r19, 0x00	; 0
    1b56:	f9 01       	movw	r30, r18
    1b58:	ee 0f       	add	r30, r30
    1b5a:	ff 1f       	adc	r31, r31
    1b5c:	e2 0f       	add	r30, r18
    1b5e:	f3 1f       	adc	r31, r19
    1b60:	e0 5f       	subi	r30, 0xF0	; 240
    1b62:	fd 4f       	sbci	r31, 0xFD	; 253
    1b64:	80 81       	ld	r24, Z
    1b66:	13 96       	adiw	r26, 0x03	; 3
    1b68:	8c 93       	st	X, r24
    1b6a:	13 97       	sbiw	r26, 0x03	; 3
    1b6c:	81 81       	ldd	r24, Z+1	; 0x01
    1b6e:	14 96       	adiw	r26, 0x04	; 4
    1b70:	8c 93       	st	X, r24
    1b72:	14 97       	sbiw	r26, 0x04	; 4
    1b74:	15 96       	adiw	r26, 0x05	; 5
    1b76:	1c 92       	st	X, r1
    1b78:	15 97       	sbiw	r26, 0x05	; 5
    1b7a:	84 2f       	mov	r24, r20
    1b7c:	80 73       	andi	r24, 0x30	; 48
    1b7e:	86 95       	lsr	r24
    1b80:	86 95       	lsr	r24
    1b82:	86 95       	lsr	r24
    1b84:	98 2f       	mov	r25, r24
    1b86:	99 0f       	add	r25, r25
    1b88:	99 0f       	add	r25, r25
    1b8a:	98 0f       	add	r25, r24
    1b8c:	4f 70       	andi	r20, 0x0F	; 15
    1b8e:	94 0f       	add	r25, r20
    1b90:	16 96       	adiw	r26, 0x06	; 6
    1b92:	9c 93       	st	X, r25
    1b94:	16 97       	sbiw	r26, 0x06	; 6
    1b96:	8e 81       	ldd	r24, Y+6	; 0x06
    1b98:	84 fb       	bst	r24, 4
    1b9a:	22 27       	eor	r18, r18
    1b9c:	20 f9       	bld	r18, 0
    1b9e:	22 0f       	add	r18, r18
    1ba0:	92 2f       	mov	r25, r18
    1ba2:	99 0f       	add	r25, r25
    1ba4:	99 0f       	add	r25, r25
    1ba6:	92 0f       	add	r25, r18
    1ba8:	8f 70       	andi	r24, 0x0F	; 15
    1baa:	98 0f       	add	r25, r24
    1bac:	17 96       	adiw	r26, 0x07	; 7
    1bae:	9c 93       	st	X, r25
    1bb0:	8f 81       	ldd	r24, Y+7	; 0x07
    1bb2:	98 2f       	mov	r25, r24
    1bb4:	92 95       	swap	r25
    1bb6:	9f 70       	andi	r25, 0x0F	; 15
    1bb8:	8f 70       	andi	r24, 0x0F	; 15
    1bba:	ba e0       	ldi	r27, 0x0A	; 10
    1bbc:	9b 9f       	mul	r25, r27
    1bbe:	80 0d       	add	r24, r0
    1bc0:	11 24       	eor	r1, r1
    1bc2:	f8 01       	movw	r30, r16
    1bc4:	80 87       	std	Z+8, r24	; 0x08
    1bc6:	b8 01       	movw	r22, r16
    1bc8:	82 e5       	ldi	r24, 0x52	; 82
    1bca:	96 e0       	ldi	r25, 0x06	; 6
    1bcc:	0e 94 a5 0c 	call	0x194a	; 0x194a <rtc_time_to_epoch>
    1bd0:	c0 90 5b 06 	lds	r12, 0x065B
    1bd4:	d0 90 5c 06 	lds	r13, 0x065C
    1bd8:	e0 90 5d 06 	lds	r14, 0x065D
    1bdc:	f0 90 5e 06 	lds	r15, 0x065E
    1be0:	6c 0d       	add	r22, r12
    1be2:	7d 1d       	adc	r23, r13
    1be4:	8e 1d       	adc	r24, r14
    1be6:	9f 1d       	adc	r25, r15
    1be8:	d8 01       	movw	r26, r16
    1bea:	19 96       	adiw	r26, 0x09	; 9
    1bec:	6d 93       	st	X+, r22
    1bee:	7d 93       	st	X+, r23
    1bf0:	8d 93       	st	X+, r24
    1bf2:	9c 93       	st	X, r25
    1bf4:	1c 97       	sbiw	r26, 0x0c	; 12
    1bf6:	8b 2d       	mov	r24, r11
    1bf8:	27 96       	adiw	r28, 0x07	; 7
    1bfa:	0f b6       	in	r0, 0x3f	; 63
    1bfc:	f8 94       	cli
    1bfe:	de bf       	out	0x3e, r29	; 62
    1c00:	0f be       	out	0x3f, r0	; 63
    1c02:	cd bf       	out	0x3d, r28	; 61
    1c04:	df 91       	pop	r29
    1c06:	cf 91       	pop	r28
    1c08:	1f 91       	pop	r17
    1c0a:	0f 91       	pop	r16
    1c0c:	ff 90       	pop	r15
    1c0e:	ef 90       	pop	r14
    1c10:	df 90       	pop	r13
    1c12:	cf 90       	pop	r12
    1c14:	bf 90       	pop	r11
    1c16:	08 95       	ret

00001c18 <a2toBCD>:
    1c18:	fc 01       	movw	r30, r24
    1c1a:	90 81       	ld	r25, Z
    1c1c:	92 95       	swap	r25
    1c1e:	90 7f       	andi	r25, 0xF0	; 240
    1c20:	81 81       	ldd	r24, Z+1	; 0x01
    1c22:	80 53       	subi	r24, 0x30	; 48
    1c24:	89 2b       	or	r24, r25
    1c26:	08 95       	ret

00001c28 <utoBCD>:
    1c28:	6a e0       	ldi	r22, 0x0A	; 10
    1c2a:	0e 94 43 14 	call	0x2886	; 0x2886 <__udivmodqi4>
    1c2e:	29 2f       	mov	r18, r25
    1c30:	30 e1       	ldi	r19, 0x10	; 16
    1c32:	83 9f       	mul	r24, r19
    1c34:	c0 01       	movw	r24, r0
    1c36:	11 24       	eor	r1, r1
    1c38:	82 2b       	or	r24, r18
    1c3a:	08 95       	ret

00001c3c <RTC_update>:
    1c3c:	0f 93       	push	r16
    1c3e:	1f 93       	push	r17
    1c40:	cf 93       	push	r28
    1c42:	df 93       	push	r29
    1c44:	cd b7       	in	r28, 0x3d	; 61
    1c46:	de b7       	in	r29, 0x3e	; 62
    1c48:	27 97       	sbiw	r28, 0x07	; 7
    1c4a:	0f b6       	in	r0, 0x3f	; 63
    1c4c:	f8 94       	cli
    1c4e:	de bf       	out	0x3e, r29	; 62
    1c50:	0f be       	out	0x3f, r0	; 63
    1c52:	cd bf       	out	0x3d, r28	; 61
    1c54:	8c 01       	movw	r16, r24
    1c56:	0b 96       	adiw	r24, 0x0b	; 11
    1c58:	0e 94 0c 0e 	call	0x1c18	; 0x1c18 <a2toBCD>
    1c5c:	89 83       	std	Y+1, r24	; 0x01
    1c5e:	c8 01       	movw	r24, r16
    1c60:	09 96       	adiw	r24, 0x09	; 9
    1c62:	0e 94 0c 0e 	call	0x1c18	; 0x1c18 <a2toBCD>
    1c66:	8a 83       	std	Y+2, r24	; 0x02
    1c68:	c8 01       	movw	r24, r16
    1c6a:	07 96       	adiw	r24, 0x07	; 7
    1c6c:	0e 94 0c 0e 	call	0x1c18	; 0x1c18 <a2toBCD>
    1c70:	8b 83       	std	Y+3, r24	; 0x03
    1c72:	f8 01       	movw	r30, r16
    1c74:	21 91       	ld	r18, Z+
    1c76:	cf 01       	movw	r24, r30
    1c78:	20 53       	subi	r18, 0x30	; 48
    1c7a:	2d 83       	std	Y+5, r18	; 0x05
    1c7c:	0e 94 0c 0e 	call	0x1c18	; 0x1c18 <a2toBCD>
    1c80:	8c 83       	std	Y+4, r24	; 0x04
    1c82:	c8 01       	movw	r24, r16
    1c84:	03 96       	adiw	r24, 0x03	; 3
    1c86:	0e 94 0c 0e 	call	0x1c18	; 0x1c18 <a2toBCD>
    1c8a:	8e 83       	std	Y+6, r24	; 0x06
    1c8c:	c8 01       	movw	r24, r16
    1c8e:	05 96       	adiw	r24, 0x05	; 5
    1c90:	0e 94 0c 0e 	call	0x1c18	; 0x1c18 <a2toBCD>
    1c94:	8f 83       	std	Y+7, r24	; 0x07
    1c96:	9e 01       	movw	r18, r28
    1c98:	2f 5f       	subi	r18, 0xFF	; 255
    1c9a:	3f 4f       	sbci	r19, 0xFF	; 255
    1c9c:	47 e0       	ldi	r20, 0x07	; 7
    1c9e:	62 e0       	ldi	r22, 0x02	; 2
    1ca0:	82 ea       	ldi	r24, 0xA2	; 162
    1ca2:	0e 94 c4 11 	call	0x2388	; 0x2388 <TWI_print>
    1ca6:	27 96       	adiw	r28, 0x07	; 7
    1ca8:	0f b6       	in	r0, 0x3f	; 63
    1caa:	f8 94       	cli
    1cac:	de bf       	out	0x3e, r29	; 62
    1cae:	0f be       	out	0x3f, r0	; 63
    1cb0:	cd bf       	out	0x3d, r28	; 61
    1cb2:	df 91       	pop	r29
    1cb4:	cf 91       	pop	r28
    1cb6:	1f 91       	pop	r17
    1cb8:	0f 91       	pop	r16
    1cba:	08 95       	ret

00001cbc <RTC_update_reg>:
    1cbc:	cf 93       	push	r28
    1cbe:	c8 2f       	mov	r28, r24
    1cc0:	86 2f       	mov	r24, r22
    1cc2:	0e 94 14 0e 	call	0x1c28	; 0x1c28 <utoBCD>
    1cc6:	48 2f       	mov	r20, r24
    1cc8:	6c 2f       	mov	r22, r28
    1cca:	82 ea       	ldi	r24, 0xA2	; 162
    1ccc:	cf 91       	pop	r28
    1cce:	0c 94 46 11 	jmp	0x228c	; 0x228c <TWI_set_char>

00001cd2 <measure_clear>:
    1cd2:	fc 01       	movw	r30, r24
    1cd4:	10 82       	st	Z, r1
    1cd6:	11 82       	std	Z+1, r1	; 0x01
    1cd8:	12 82       	std	Z+2, r1	; 0x02
    1cda:	13 82       	std	Z+3, r1	; 0x03
    1cdc:	14 82       	std	Z+4, r1	; 0x04
    1cde:	15 82       	std	Z+5, r1	; 0x05
    1ce0:	16 82       	std	Z+6, r1	; 0x06
    1ce2:	17 82       	std	Z+7, r1	; 0x07
    1ce4:	10 86       	std	Z+8, r1	; 0x08
    1ce6:	11 86       	std	Z+9, r1	; 0x09
    1ce8:	12 86       	std	Z+10, r1	; 0x0a
    1cea:	13 86       	std	Z+11, r1	; 0x0b
    1cec:	15 86       	std	Z+13, r1	; 0x0d
    1cee:	14 86       	std	Z+12, r1	; 0x0c
    1cf0:	16 86       	std	Z+14, r1	; 0x0e
    1cf2:	17 86       	std	Z+15, r1	; 0x0f
    1cf4:	10 8a       	std	Z+16, r1	; 0x10
    1cf6:	11 8a       	std	Z+17, r1	; 0x11
    1cf8:	12 8a       	std	Z+18, r1	; 0x12
    1cfa:	13 8a       	std	Z+19, r1	; 0x13
    1cfc:	14 8a       	std	Z+20, r1	; 0x14
    1cfe:	15 8a       	std	Z+21, r1	; 0x15
    1d00:	16 8e       	std	Z+30, r1	; 0x1e
    1d02:	17 8e       	std	Z+31, r1	; 0x1f
    1d04:	10 a2       	std	Z+32, r1	; 0x20
    1d06:	11 a2       	std	Z+33, r1	; 0x21
    1d08:	16 8a       	std	Z+22, r1	; 0x16
    1d0a:	17 8a       	std	Z+23, r1	; 0x17
    1d0c:	10 8e       	std	Z+24, r1	; 0x18
    1d0e:	11 8e       	std	Z+25, r1	; 0x19
    1d10:	12 8e       	std	Z+26, r1	; 0x1a
    1d12:	13 8e       	std	Z+27, r1	; 0x1b
    1d14:	14 8e       	std	Z+28, r1	; 0x1c
    1d16:	15 8e       	std	Z+29, r1	; 0x1d
    1d18:	12 a2       	std	Z+34, r1	; 0x22
    1d1a:	13 a2       	std	Z+35, r1	; 0x23
    1d1c:	14 a2       	std	Z+36, r1	; 0x24
    1d1e:	15 a2       	std	Z+37, r1	; 0x25
    1d20:	16 a2       	std	Z+38, r1	; 0x26
    1d22:	17 a2       	std	Z+39, r1	; 0x27
    1d24:	10 a6       	std	Z+40, r1	; 0x28
    1d26:	11 a6       	std	Z+41, r1	; 0x29
    1d28:	12 a6       	std	Z+42, r1	; 0x2a
    1d2a:	13 a6       	std	Z+43, r1	; 0x2b
    1d2c:	14 a6       	std	Z+44, r1	; 0x2c
    1d2e:	15 a6       	std	Z+45, r1	; 0x2d
    1d30:	08 95       	ret

00001d32 <anemos_init>:
    1d32:	08 95       	ret

00001d34 <anemo_start_count>:
    1d34:	10 92 78 06 	sts	0x0678, r1
    1d38:	10 92 79 06 	sts	0x0679, r1
    1d3c:	10 92 7a 06 	sts	0x067A, r1
    1d40:	10 92 7b 06 	sts	0x067B, r1
    1d44:	ea e6       	ldi	r30, 0x6A	; 106
    1d46:	f0 e0       	ldi	r31, 0x00	; 0
    1d48:	80 81       	ld	r24, Z
    1d4a:	82 60       	ori	r24, 0x02	; 2
    1d4c:	80 83       	st	Z, r24
    1d4e:	ec 9a       	sbi	0x1d, 4	; 29
    1d50:	e4 ea       	ldi	r30, 0xA4	; 164
    1d52:	f0 e0       	ldi	r31, 0x00	; 0
    1d54:	11 82       	std	Z+1, r1	; 0x01
    1d56:	10 82       	st	Z, r1
    1d58:	a1 ea       	ldi	r26, 0xA1	; 161
    1d5a:	b0 e0       	ldi	r27, 0x00	; 0
    1d5c:	8c 91       	ld	r24, X
    1d5e:	85 60       	ori	r24, 0x05	; 5
    1d60:	8c 93       	st	X, r24
    1d62:	a2 e7       	ldi	r26, 0x72	; 114
    1d64:	b0 e0       	ldi	r27, 0x00	; 0
    1d66:	8c 91       	ld	r24, X
    1d68:	81 60       	ori	r24, 0x01	; 1
    1d6a:	8c 93       	st	X, r24
    1d6c:	80 81       	ld	r24, Z
    1d6e:	91 81       	ldd	r25, Z+1	; 0x01
    1d70:	90 93 ef 06 	sts	0x06EF, r25
    1d74:	80 93 ee 06 	sts	0x06EE, r24
    1d78:	08 95       	ret

00001d7a <anemo_read_value>:
    1d7a:	cf 92       	push	r12
    1d7c:	df 92       	push	r13
    1d7e:	ef 92       	push	r14
    1d80:	ff 92       	push	r15
    1d82:	2d eb       	ldi	r18, 0xBD	; 189
    1d84:	37 e3       	ldi	r19, 0x37	; 55
    1d86:	46 e8       	ldi	r20, 0x86	; 134
    1d88:	50 e4       	ldi	r21, 0x40	; 64
    1d8a:	60 91 78 06 	lds	r22, 0x0678
    1d8e:	70 91 79 06 	lds	r23, 0x0679
    1d92:	80 91 7a 06 	lds	r24, 0x067A
    1d96:	90 91 7b 06 	lds	r25, 0x067B
    1d9a:	0e 94 34 15 	call	0x2a68	; 0x2a68 <__divsf3>
    1d9e:	6b 01       	movw	r12, r22
    1da0:	7c 01       	movw	r14, r24
    1da2:	60 93 78 06 	sts	0x0678, r22
    1da6:	70 93 79 06 	sts	0x0679, r23
    1daa:	80 93 7a 06 	sts	0x067A, r24
    1dae:	90 93 7b 06 	sts	0x067B, r25
    1db2:	20 e0       	ldi	r18, 0x00	; 0
    1db4:	30 e0       	ldi	r19, 0x00	; 0
    1db6:	a9 01       	movw	r20, r18
    1db8:	0e 94 30 15 	call	0x2a60	; 0x2a60 <__cmpsf2>
    1dbc:	88 23       	and	r24, r24
    1dbe:	09 f4       	brne	.+2      	; 0x1dc2 <anemo_read_value+0x48>
    1dc0:	41 c0       	rjmp	.+130    	; 0x1e44 <anemo_read_value+0xca>
    1dc2:	20 91 a6 06 	lds	r18, 0x06A6
    1dc6:	30 91 a7 06 	lds	r19, 0x06A7
    1dca:	40 91 a8 06 	lds	r20, 0x06A8
    1dce:	50 91 a9 06 	lds	r21, 0x06A9
    1dd2:	c7 01       	movw	r24, r14
    1dd4:	b6 01       	movw	r22, r12
    1dd6:	0e 94 7e 16 	call	0x2cfc	; 0x2cfc <__mulsf3>
    1dda:	20 91 aa 06 	lds	r18, 0x06AA
    1dde:	30 91 ab 06 	lds	r19, 0x06AB
    1de2:	40 91 ac 06 	lds	r20, 0x06AC
    1de6:	50 91 ad 06 	lds	r21, 0x06AD
    1dea:	0e 94 cc 14 	call	0x2998	; 0x2998 <__addsf3>
    1dee:	6b 01       	movw	r12, r22
    1df0:	7c 01       	movw	r14, r24
    1df2:	60 93 78 06 	sts	0x0678, r22
    1df6:	70 93 79 06 	sts	0x0679, r23
    1dfa:	80 93 7a 06 	sts	0x067A, r24
    1dfe:	90 93 7b 06 	sts	0x067B, r25
    1e02:	60 91 76 06 	lds	r22, 0x0676
    1e06:	70 e0       	ldi	r23, 0x00	; 0
    1e08:	80 e0       	ldi	r24, 0x00	; 0
    1e0a:	90 e0       	ldi	r25, 0x00	; 0
    1e0c:	0e 94 ca 15 	call	0x2b94	; 0x2b94 <__floatsisf>
    1e10:	9b 01       	movw	r18, r22
    1e12:	ac 01       	movw	r20, r24
    1e14:	c7 01       	movw	r24, r14
    1e16:	b6 01       	movw	r22, r12
    1e18:	0e 94 34 15 	call	0x2a68	; 0x2a68 <__divsf3>
    1e1c:	9b 01       	movw	r18, r22
    1e1e:	ac 01       	movw	r20, r24
    1e20:	60 91 7c 06 	lds	r22, 0x067C
    1e24:	70 91 7d 06 	lds	r23, 0x067D
    1e28:	80 91 7e 06 	lds	r24, 0x067E
    1e2c:	90 91 7f 06 	lds	r25, 0x067F
    1e30:	0e 94 cc 14 	call	0x2998	; 0x2998 <__addsf3>
    1e34:	60 93 7c 06 	sts	0x067C, r22
    1e38:	70 93 7d 06 	sts	0x067D, r23
    1e3c:	80 93 7e 06 	sts	0x067E, r24
    1e40:	90 93 7f 06 	sts	0x067F, r25
    1e44:	ff 90       	pop	r15
    1e46:	ef 90       	pop	r14
    1e48:	df 90       	pop	r13
    1e4a:	cf 90       	pop	r12
    1e4c:	08 95       	ret

00001e4e <__vector_45>:
    1e4e:	1f 92       	push	r1
    1e50:	0f 92       	push	r0
    1e52:	0f b6       	in	r0, 0x3f	; 63
    1e54:	0f 92       	push	r0
    1e56:	11 24       	eor	r1, r1
    1e58:	8f 93       	push	r24
    1e5a:	1d ba       	out	0x1d, r1	; 29
    1e5c:	10 92 a1 00 	sts	0x00A1, r1
    1e60:	81 e0       	ldi	r24, 0x01	; 1
    1e62:	80 93 dd 06 	sts	0x06DD, r24
    1e66:	8f 91       	pop	r24
    1e68:	0f 90       	pop	r0
    1e6a:	0f be       	out	0x3f, r0	; 63
    1e6c:	0f 90       	pop	r0
    1e6e:	1f 90       	pop	r1
    1e70:	18 95       	reti

00001e72 <__vector_5>:
    1e72:	1f 92       	push	r1
    1e74:	0f 92       	push	r0
    1e76:	0f b6       	in	r0, 0x3f	; 63
    1e78:	0f 92       	push	r0
    1e7a:	11 24       	eor	r1, r1
    1e7c:	0b b6       	in	r0, 0x3b	; 59
    1e7e:	0f 92       	push	r0
    1e80:	2f 93       	push	r18
    1e82:	3f 93       	push	r19
    1e84:	4f 93       	push	r20
    1e86:	5f 93       	push	r21
    1e88:	6f 93       	push	r22
    1e8a:	7f 93       	push	r23
    1e8c:	8f 93       	push	r24
    1e8e:	9f 93       	push	r25
    1e90:	af 93       	push	r26
    1e92:	bf 93       	push	r27
    1e94:	ef 93       	push	r30
    1e96:	ff 93       	push	r31
    1e98:	80 91 a4 00 	lds	r24, 0x00A4
    1e9c:	90 91 a5 00 	lds	r25, 0x00A5
    1ea0:	20 91 ee 06 	lds	r18, 0x06EE
    1ea4:	30 91 ef 06 	lds	r19, 0x06EF
    1ea8:	82 1b       	sub	r24, r18
    1eaa:	93 0b       	sbc	r25, r19
    1eac:	8b 33       	cpi	r24, 0x3B	; 59
    1eae:	91 40       	sbci	r25, 0x01	; 1
    1eb0:	f0 f0       	brcs	.+60     	; 0x1eee <__vector_5+0x7c>
    1eb2:	20 e0       	ldi	r18, 0x00	; 0
    1eb4:	30 e0       	ldi	r19, 0x00	; 0
    1eb6:	40 e8       	ldi	r20, 0x80	; 128
    1eb8:	5f e3       	ldi	r21, 0x3F	; 63
    1eba:	60 91 78 06 	lds	r22, 0x0678
    1ebe:	70 91 79 06 	lds	r23, 0x0679
    1ec2:	80 91 7a 06 	lds	r24, 0x067A
    1ec6:	90 91 7b 06 	lds	r25, 0x067B
    1eca:	0e 94 cc 14 	call	0x2998	; 0x2998 <__addsf3>
    1ece:	60 93 78 06 	sts	0x0678, r22
    1ed2:	70 93 79 06 	sts	0x0679, r23
    1ed6:	80 93 7a 06 	sts	0x067A, r24
    1eda:	90 93 7b 06 	sts	0x067B, r25
    1ede:	80 91 a4 00 	lds	r24, 0x00A4
    1ee2:	90 91 a5 00 	lds	r25, 0x00A5
    1ee6:	90 93 ef 06 	sts	0x06EF, r25
    1eea:	80 93 ee 06 	sts	0x06EE, r24
    1eee:	ff 91       	pop	r31
    1ef0:	ef 91       	pop	r30
    1ef2:	bf 91       	pop	r27
    1ef4:	af 91       	pop	r26
    1ef6:	9f 91       	pop	r25
    1ef8:	8f 91       	pop	r24
    1efa:	7f 91       	pop	r23
    1efc:	6f 91       	pop	r22
    1efe:	5f 91       	pop	r21
    1f00:	4f 91       	pop	r20
    1f02:	3f 91       	pop	r19
    1f04:	2f 91       	pop	r18
    1f06:	0f 90       	pop	r0
    1f08:	0b be       	out	0x3b, r0	; 59
    1f0a:	0f 90       	pop	r0
    1f0c:	0f be       	out	0x3f, r0	; 63
    1f0e:	0f 90       	pop	r0
    1f10:	1f 90       	pop	r1
    1f12:	18 95       	reti

00001f14 <dir_value>:
    1f14:	cf 93       	push	r28
    1f16:	df 93       	push	r29
    1f18:	ec 01       	movw	r28, r24
    1f1a:	80 e0       	ldi	r24, 0x00	; 0
    1f1c:	0e 94 81 01 	call	0x302	; 0x302 <adc_value>
    1f20:	27 e6       	ldi	r18, 0x67	; 103
    1f22:	31 e0       	ldi	r19, 0x01	; 1
    1f24:	dc 01       	movw	r26, r24
    1f26:	0e 94 aa 14 	call	0x2954	; 0x2954 <__usmulhisi3>
    1f2a:	2f e4       	ldi	r18, 0x4F	; 79
    1f2c:	33 e0       	ldi	r19, 0x03	; 3
    1f2e:	40 e0       	ldi	r20, 0x00	; 0
    1f30:	50 e0       	ldi	r21, 0x00	; 0
    1f32:	0e 94 63 14 	call	0x28c6	; 0x28c6 <__udivmodsi4>
    1f36:	80 91 ba 06 	lds	r24, 0x06BA
    1f3a:	90 91 bb 06 	lds	r25, 0x06BB
    1f3e:	28 0f       	add	r18, r24
    1f40:	39 1f       	adc	r19, r25
    1f42:	41 1d       	adc	r20, r1
    1f44:	51 1d       	adc	r21, r1
    1f46:	ca 01       	movw	r24, r20
    1f48:	b9 01       	movw	r22, r18
    1f4a:	28 e6       	ldi	r18, 0x68	; 104
    1f4c:	31 e0       	ldi	r19, 0x01	; 1
    1f4e:	40 e0       	ldi	r20, 0x00	; 0
    1f50:	50 e0       	ldi	r21, 0x00	; 0
    1f52:	0e 94 63 14 	call	0x28c6	; 0x28c6 <__udivmodsi4>
    1f56:	20 91 76 06 	lds	r18, 0x0676
    1f5a:	30 e0       	ldi	r19, 0x00	; 0
    1f5c:	40 e0       	ldi	r20, 0x00	; 0
    1f5e:	50 e0       	ldi	r21, 0x00	; 0
    1f60:	0e 94 63 14 	call	0x28c6	; 0x28c6 <__udivmodsi4>
    1f64:	8c 85       	ldd	r24, Y+12	; 0x0c
    1f66:	9d 85       	ldd	r25, Y+13	; 0x0d
    1f68:	82 0f       	add	r24, r18
    1f6a:	93 1f       	adc	r25, r19
    1f6c:	9d 87       	std	Y+13, r25	; 0x0d
    1f6e:	8c 87       	std	Y+12, r24	; 0x0c
    1f70:	df 91       	pop	r29
    1f72:	cf 91       	pop	r28
    1f74:	08 95       	ret

00001f76 <temp_value>:
    1f76:	cf 92       	push	r12
    1f78:	df 92       	push	r13
    1f7a:	ef 92       	push	r14
    1f7c:	ff 92       	push	r15
    1f7e:	cf 93       	push	r28
    1f80:	df 93       	push	r29
    1f82:	ec 01       	movw	r28, r24
    1f84:	81 e0       	ldi	r24, 0x01	; 1
    1f86:	0e 94 81 01 	call	0x302	; 0x302 <adc_value>
    1f8a:	bc 01       	movw	r22, r24
    1f8c:	88 27       	eor	r24, r24
    1f8e:	77 fd       	sbrc	r23, 7
    1f90:	80 95       	com	r24
    1f92:	98 2f       	mov	r25, r24
    1f94:	0e 94 ca 15 	call	0x2b94	; 0x2b94 <__floatsisf>
    1f98:	20 e0       	ldi	r18, 0x00	; 0
    1f9a:	30 e0       	ldi	r19, 0x00	; 0
    1f9c:	40 ea       	ldi	r20, 0xA0	; 160
    1f9e:	50 e4       	ldi	r21, 0x40	; 64
    1fa0:	0e 94 7e 16 	call	0x2cfc	; 0x2cfc <__mulsf3>
    1fa4:	20 e0       	ldi	r18, 0x00	; 0
    1fa6:	30 e0       	ldi	r19, 0x00	; 0
    1fa8:	40 e8       	ldi	r20, 0x80	; 128
    1faa:	5a e3       	ldi	r21, 0x3A	; 58
    1fac:	0e 94 7e 16 	call	0x2cfc	; 0x2cfc <__mulsf3>
    1fb0:	2a ea       	ldi	r18, 0xAA	; 170
    1fb2:	3a ea       	ldi	r19, 0xAA	; 170
    1fb4:	46 e2       	ldi	r20, 0x26	; 38
    1fb6:	52 ec       	ldi	r21, 0xC2	; 194
    1fb8:	0e 94 7e 16 	call	0x2cfc	; 0x2cfc <__mulsf3>
    1fbc:	20 e0       	ldi	r18, 0x00	; 0
    1fbe:	30 e0       	ldi	r19, 0x00	; 0
    1fc0:	48 e4       	ldi	r20, 0x48	; 72
    1fc2:	52 e4       	ldi	r21, 0x42	; 66
    1fc4:	0e 94 cc 14 	call	0x2998	; 0x2998 <__addsf3>
    1fc8:	6b 01       	movw	r12, r22
    1fca:	7c 01       	movw	r14, r24
    1fcc:	60 91 76 06 	lds	r22, 0x0676
    1fd0:	70 e0       	ldi	r23, 0x00	; 0
    1fd2:	80 e0       	ldi	r24, 0x00	; 0
    1fd4:	90 e0       	ldi	r25, 0x00	; 0
    1fd6:	0e 94 ca 15 	call	0x2b94	; 0x2b94 <__floatsisf>
    1fda:	9b 01       	movw	r18, r22
    1fdc:	ac 01       	movw	r20, r24
    1fde:	c7 01       	movw	r24, r14
    1fe0:	b6 01       	movw	r22, r12
    1fe2:	0e 94 34 15 	call	0x2a68	; 0x2a68 <__divsf3>
    1fe6:	9b 01       	movw	r18, r22
    1fe8:	ac 01       	movw	r20, r24
    1fea:	6e a1       	ldd	r22, Y+38	; 0x26
    1fec:	7f a1       	ldd	r23, Y+39	; 0x27
    1fee:	88 a5       	ldd	r24, Y+40	; 0x28
    1ff0:	99 a5       	ldd	r25, Y+41	; 0x29
    1ff2:	0e 94 cc 14 	call	0x2998	; 0x2998 <__addsf3>
    1ff6:	6e a3       	std	Y+38, r22	; 0x26
    1ff8:	7f a3       	std	Y+39, r23	; 0x27
    1ffa:	88 a7       	std	Y+40, r24	; 0x28
    1ffc:	99 a7       	std	Y+41, r25	; 0x29
    1ffe:	df 91       	pop	r29
    2000:	cf 91       	pop	r28
    2002:	ff 90       	pop	r15
    2004:	ef 90       	pop	r14
    2006:	df 90       	pop	r13
    2008:	cf 90       	pop	r12
    200a:	08 95       	ret

0000200c <inst_AC_voltage>:
    200c:	82 e0       	ldi	r24, 0x02	; 2
    200e:	0e 94 81 01 	call	0x302	; 0x302 <adc_value>
    2012:	bc 01       	movw	r22, r24
    2014:	88 27       	eor	r24, r24
    2016:	77 fd       	sbrc	r23, 7
    2018:	80 95       	com	r24
    201a:	98 2f       	mov	r25, r24
    201c:	0e 94 ca 15 	call	0x2b94	; 0x2b94 <__floatsisf>
    2020:	20 e0       	ldi	r18, 0x00	; 0
    2022:	30 e0       	ldi	r19, 0x00	; 0
    2024:	40 ea       	ldi	r20, 0xA0	; 160
    2026:	50 e4       	ldi	r21, 0x40	; 64
    2028:	0e 94 7e 16 	call	0x2cfc	; 0x2cfc <__mulsf3>
    202c:	20 e0       	ldi	r18, 0x00	; 0
    202e:	30 e0       	ldi	r19, 0x00	; 0
    2030:	40 e8       	ldi	r20, 0x80	; 128
    2032:	5a e3       	ldi	r21, 0x3A	; 58
    2034:	0e 94 7e 16 	call	0x2cfc	; 0x2cfc <__mulsf3>
    2038:	08 95       	ret

0000203a <inst_AC_current>:
    203a:	84 e0       	ldi	r24, 0x04	; 4
    203c:	0e 94 81 01 	call	0x302	; 0x302 <adc_value>
    2040:	bc 01       	movw	r22, r24
    2042:	88 27       	eor	r24, r24
    2044:	77 fd       	sbrc	r23, 7
    2046:	80 95       	com	r24
    2048:	98 2f       	mov	r25, r24
    204a:	0e 94 ca 15 	call	0x2b94	; 0x2b94 <__floatsisf>
    204e:	20 e0       	ldi	r18, 0x00	; 0
    2050:	30 e0       	ldi	r19, 0x00	; 0
    2052:	40 ea       	ldi	r20, 0xA0	; 160
    2054:	50 e4       	ldi	r21, 0x40	; 64
    2056:	0e 94 7e 16 	call	0x2cfc	; 0x2cfc <__mulsf3>
    205a:	20 e0       	ldi	r18, 0x00	; 0
    205c:	30 e0       	ldi	r19, 0x00	; 0
    205e:	40 e8       	ldi	r20, 0x80	; 128
    2060:	5a e3       	ldi	r21, 0x3A	; 58
    2062:	0e 94 7e 16 	call	0x2cfc	; 0x2cfc <__mulsf3>
    2066:	08 95       	ret

00002068 <AC_voltage_offset>:
    2068:	cf 92       	push	r12
    206a:	df 92       	push	r13
    206c:	ef 92       	push	r14
    206e:	ff 92       	push	r15
    2070:	cf 93       	push	r28
    2072:	c4 e6       	ldi	r28, 0x64	; 100
    2074:	c1 2c       	mov	r12, r1
    2076:	d1 2c       	mov	r13, r1
    2078:	76 01       	movw	r14, r12
    207a:	82 e0       	ldi	r24, 0x02	; 2
    207c:	0e 94 81 01 	call	0x302	; 0x302 <adc_value>
    2080:	bc 01       	movw	r22, r24
    2082:	88 27       	eor	r24, r24
    2084:	77 fd       	sbrc	r23, 7
    2086:	80 95       	com	r24
    2088:	98 2f       	mov	r25, r24
    208a:	0e 94 ca 15 	call	0x2b94	; 0x2b94 <__floatsisf>
    208e:	9b 01       	movw	r18, r22
    2090:	ac 01       	movw	r20, r24
    2092:	c7 01       	movw	r24, r14
    2094:	b6 01       	movw	r22, r12
    2096:	0e 94 cc 14 	call	0x2998	; 0x2998 <__addsf3>
    209a:	6b 01       	movw	r12, r22
    209c:	7c 01       	movw	r14, r24
    209e:	c1 50       	subi	r28, 0x01	; 1
    20a0:	61 f7       	brne	.-40     	; 0x207a <AC_voltage_offset+0x12>
    20a2:	20 e0       	ldi	r18, 0x00	; 0
    20a4:	30 e0       	ldi	r19, 0x00	; 0
    20a6:	48 ec       	ldi	r20, 0xC8	; 200
    20a8:	52 e4       	ldi	r21, 0x42	; 66
    20aa:	0e 94 34 15 	call	0x2a68	; 0x2a68 <__divsf3>
    20ae:	20 e0       	ldi	r18, 0x00	; 0
    20b0:	30 e0       	ldi	r19, 0x00	; 0
    20b2:	40 ea       	ldi	r20, 0xA0	; 160
    20b4:	50 e4       	ldi	r21, 0x40	; 64
    20b6:	0e 94 7e 16 	call	0x2cfc	; 0x2cfc <__mulsf3>
    20ba:	20 e0       	ldi	r18, 0x00	; 0
    20bc:	30 e0       	ldi	r19, 0x00	; 0
    20be:	40 e8       	ldi	r20, 0x80	; 128
    20c0:	5a e3       	ldi	r21, 0x3A	; 58
    20c2:	0e 94 7e 16 	call	0x2cfc	; 0x2cfc <__mulsf3>
    20c6:	cf 91       	pop	r28
    20c8:	ff 90       	pop	r15
    20ca:	ef 90       	pop	r14
    20cc:	df 90       	pop	r13
    20ce:	cf 90       	pop	r12
    20d0:	08 95       	ret

000020d2 <AC_current_offset>:
    20d2:	cf 92       	push	r12
    20d4:	df 92       	push	r13
    20d6:	ef 92       	push	r14
    20d8:	ff 92       	push	r15
    20da:	cf 93       	push	r28
    20dc:	c4 e6       	ldi	r28, 0x64	; 100
    20de:	c1 2c       	mov	r12, r1
    20e0:	d1 2c       	mov	r13, r1
    20e2:	76 01       	movw	r14, r12
    20e4:	84 e0       	ldi	r24, 0x04	; 4
    20e6:	0e 94 81 01 	call	0x302	; 0x302 <adc_value>
    20ea:	bc 01       	movw	r22, r24
    20ec:	88 27       	eor	r24, r24
    20ee:	77 fd       	sbrc	r23, 7
    20f0:	80 95       	com	r24
    20f2:	98 2f       	mov	r25, r24
    20f4:	0e 94 ca 15 	call	0x2b94	; 0x2b94 <__floatsisf>
    20f8:	9b 01       	movw	r18, r22
    20fa:	ac 01       	movw	r20, r24
    20fc:	c7 01       	movw	r24, r14
    20fe:	b6 01       	movw	r22, r12
    2100:	0e 94 cc 14 	call	0x2998	; 0x2998 <__addsf3>
    2104:	6b 01       	movw	r12, r22
    2106:	7c 01       	movw	r14, r24
    2108:	c1 50       	subi	r28, 0x01	; 1
    210a:	61 f7       	brne	.-40     	; 0x20e4 <AC_current_offset+0x12>
    210c:	20 e0       	ldi	r18, 0x00	; 0
    210e:	30 e0       	ldi	r19, 0x00	; 0
    2110:	48 ec       	ldi	r20, 0xC8	; 200
    2112:	52 e4       	ldi	r21, 0x42	; 66
    2114:	0e 94 34 15 	call	0x2a68	; 0x2a68 <__divsf3>
    2118:	20 e0       	ldi	r18, 0x00	; 0
    211a:	30 e0       	ldi	r19, 0x00	; 0
    211c:	40 ea       	ldi	r20, 0xA0	; 160
    211e:	50 e4       	ldi	r21, 0x40	; 64
    2120:	0e 94 7e 16 	call	0x2cfc	; 0x2cfc <__mulsf3>
    2124:	20 e0       	ldi	r18, 0x00	; 0
    2126:	30 e0       	ldi	r19, 0x00	; 0
    2128:	40 e8       	ldi	r20, 0x80	; 128
    212a:	5a e3       	ldi	r21, 0x3A	; 58
    212c:	0e 94 7e 16 	call	0x2cfc	; 0x2cfc <__mulsf3>
    2130:	cf 91       	pop	r28
    2132:	ff 90       	pop	r15
    2134:	ef 90       	pop	r14
    2136:	df 90       	pop	r13
    2138:	cf 90       	pop	r12
    213a:	08 95       	ret

0000213c <init_FSM>:
    213c:	81 e7       	ldi	r24, 0x71	; 113
    213e:	92 e0       	ldi	r25, 0x02	; 2
    2140:	90 93 89 00 	sts	0x0089, r25
    2144:	80 93 88 00 	sts	0x0088, r24
    2148:	ef e6       	ldi	r30, 0x6F	; 111
    214a:	f0 e0       	ldi	r31, 0x00	; 0
    214c:	80 81       	ld	r24, Z
    214e:	82 60       	ori	r24, 0x02	; 2
    2150:	80 83       	st	Z, r24
    2152:	10 92 80 00 	sts	0x0080, r1
    2156:	e1 e8       	ldi	r30, 0x81	; 129
    2158:	f0 e0       	ldi	r31, 0x00	; 0
    215a:	80 81       	ld	r24, Z
    215c:	8c 60       	ori	r24, 0x0C	; 12
    215e:	80 83       	st	Z, r24
    2160:	08 95       	ret

00002162 <__vector_17>:
    2162:	1f 92       	push	r1
    2164:	0f 92       	push	r0
    2166:	0f b6       	in	r0, 0x3f	; 63
    2168:	0f 92       	push	r0
    216a:	11 24       	eor	r1, r1
    216c:	0b b6       	in	r0, 0x3b	; 59
    216e:	0f 92       	push	r0
    2170:	8f 93       	push	r24
    2172:	ef 93       	push	r30
    2174:	ff 93       	push	r31
    2176:	81 e0       	ldi	r24, 0x01	; 1
    2178:	80 93 61 06 	sts	0x0661, r24
    217c:	ed e6       	ldi	r30, 0x6D	; 109
    217e:	f6 e0       	ldi	r31, 0x06	; 6
    2180:	80 81       	ld	r24, Z
    2182:	8f 5f       	subi	r24, 0xFF	; 255
    2184:	80 83       	st	Z, r24
    2186:	ff 91       	pop	r31
    2188:	ef 91       	pop	r30
    218a:	8f 91       	pop	r24
    218c:	0f 90       	pop	r0
    218e:	0b be       	out	0x3b, r0	; 59
    2190:	0f 90       	pop	r0
    2192:	0f be       	out	0x3f, r0	; 63
    2194:	0f 90       	pop	r0
    2196:	1f 90       	pop	r1
    2198:	18 95       	reti

0000219a <init_millis>:
    219a:	10 92 73 06 	sts	0x0673, r1
    219e:	10 92 72 06 	sts	0x0672, r1
    21a2:	10 92 b2 00 	sts	0x00B2, r1
    21a6:	8a ef       	ldi	r24, 0xFA	; 250
    21a8:	80 93 b3 00 	sts	0x00B3, r24
    21ac:	e0 eb       	ldi	r30, 0xB0	; 176
    21ae:	f0 e0       	ldi	r31, 0x00	; 0
    21b0:	80 81       	ld	r24, Z
    21b2:	82 60       	ori	r24, 0x02	; 2
    21b4:	80 83       	st	Z, r24
    21b6:	e0 e7       	ldi	r30, 0x70	; 112
    21b8:	f0 e0       	ldi	r31, 0x00	; 0
    21ba:	80 81       	ld	r24, Z
    21bc:	82 60       	ori	r24, 0x02	; 2
    21be:	80 83       	st	Z, r24
    21c0:	e1 eb       	ldi	r30, 0xB1	; 177
    21c2:	f0 e0       	ldi	r31, 0x00	; 0
    21c4:	80 81       	ld	r24, Z
    21c6:	84 60       	ori	r24, 0x04	; 4
    21c8:	80 83       	st	Z, r24
    21ca:	08 95       	ret

000021cc <__vector_13>:
    21cc:	1f 92       	push	r1
    21ce:	0f 92       	push	r0
    21d0:	0f b6       	in	r0, 0x3f	; 63
    21d2:	0f 92       	push	r0
    21d4:	11 24       	eor	r1, r1
    21d6:	0b b6       	in	r0, 0x3b	; 59
    21d8:	0f 92       	push	r0
    21da:	8f 93       	push	r24
    21dc:	9f 93       	push	r25
    21de:	ef 93       	push	r30
    21e0:	ff 93       	push	r31
    21e2:	e2 e7       	ldi	r30, 0x72	; 114
    21e4:	f6 e0       	ldi	r31, 0x06	; 6
    21e6:	80 81       	ld	r24, Z
    21e8:	91 81       	ldd	r25, Z+1	; 0x01
    21ea:	01 96       	adiw	r24, 0x01	; 1
    21ec:	91 83       	std	Z+1, r25	; 0x01
    21ee:	80 83       	st	Z, r24
    21f0:	ff 91       	pop	r31
    21f2:	ef 91       	pop	r30
    21f4:	9f 91       	pop	r25
    21f6:	8f 91       	pop	r24
    21f8:	0f 90       	pop	r0
    21fa:	0b be       	out	0x3b, r0	; 59
    21fc:	0f 90       	pop	r0
    21fe:	0f be       	out	0x3f, r0	; 63
    2200:	0f 90       	pop	r0
    2202:	1f 90       	pop	r1
    2204:	18 95       	reti

00002206 <stop_millis>:
    2206:	10 92 b1 00 	sts	0x00B1, r1
    220a:	08 95       	ret

0000220c <TWI_init>:
    220c:	10 92 b9 00 	sts	0x00B9, r1
    2210:	88 e4       	ldi	r24, 0x48	; 72
    2212:	80 93 b8 00 	sts	0x00B8, r24
    2216:	84 e0       	ldi	r24, 0x04	; 4
    2218:	80 93 bc 00 	sts	0x00BC, r24
    221c:	80 e0       	ldi	r24, 0x00	; 0
    221e:	08 95       	ret

00002220 <TWI_start>:
    2220:	84 ea       	ldi	r24, 0xA4	; 164
    2222:	80 93 bc 00 	sts	0x00BC, r24
    2226:	80 91 bc 00 	lds	r24, 0x00BC
    222a:	87 ff       	sbrs	r24, 7
    222c:	fc cf       	rjmp	.-8      	; 0x2226 <TWI_start+0x6>
    222e:	08 95       	ret

00002230 <TWI_restart>:
    2230:	84 ea       	ldi	r24, 0xA4	; 164
    2232:	80 93 bc 00 	sts	0x00BC, r24
    2236:	80 91 bc 00 	lds	r24, 0x00BC
    223a:	87 ff       	sbrs	r24, 7
    223c:	fc cf       	rjmp	.-8      	; 0x2236 <TWI_restart+0x6>
    223e:	08 95       	ret

00002240 <TWI_stop>:
    2240:	84 e9       	ldi	r24, 0x94	; 148
    2242:	80 93 bc 00 	sts	0x00BC, r24
    2246:	08 95       	ret

00002248 <TWI_set>:
    2248:	80 93 bb 00 	sts	0x00BB, r24
    224c:	84 e8       	ldi	r24, 0x84	; 132
    224e:	80 93 bc 00 	sts	0x00BC, r24
    2252:	80 91 bc 00 	lds	r24, 0x00BC
    2256:	87 ff       	sbrs	r24, 7
    2258:	fc cf       	rjmp	.-8      	; 0x2252 <TWI_set+0xa>
    225a:	08 95       	ret

0000225c <TWI_get_ack>:
    225c:	84 ec       	ldi	r24, 0xC4	; 196
    225e:	80 93 bc 00 	sts	0x00BC, r24
    2262:	80 91 bc 00 	lds	r24, 0x00BC
    2266:	87 ff       	sbrs	r24, 7
    2268:	fc cf       	rjmp	.-8      	; 0x2262 <TWI_get_ack+0x6>
    226a:	80 91 bb 00 	lds	r24, 0x00BB
    226e:	08 95       	ret

00002270 <TWI_get_nack>:
    2270:	84 e8       	ldi	r24, 0x84	; 132
    2272:	80 93 bc 00 	sts	0x00BC, r24
    2276:	80 91 bc 00 	lds	r24, 0x00BC
    227a:	87 ff       	sbrs	r24, 7
    227c:	fc cf       	rjmp	.-8      	; 0x2276 <TWI_get_nack+0x6>
    227e:	80 91 bb 00 	lds	r24, 0x00BB
    2282:	08 95       	ret

00002284 <TWI_get_status>:
    2284:	80 91 b9 00 	lds	r24, 0x00B9
    2288:	88 7f       	andi	r24, 0xF8	; 248
    228a:	08 95       	ret

0000228c <TWI_set_char>:
    228c:	0f 93       	push	r16
    228e:	1f 93       	push	r17
    2290:	cf 93       	push	r28
    2292:	df 93       	push	r29
    2294:	1f 92       	push	r1
    2296:	cd b7       	in	r28, 0x3d	; 61
    2298:	de b7       	in	r29, 0x3e	; 62
    229a:	16 2f       	mov	r17, r22
    229c:	04 2f       	mov	r16, r20
    229e:	89 83       	std	Y+1, r24	; 0x01
    22a0:	0e 94 10 11 	call	0x2220	; 0x2220 <TWI_start>
    22a4:	90 91 b9 00 	lds	r25, 0x00B9
    22a8:	98 7f       	andi	r25, 0xF8	; 248
    22aa:	89 81       	ldd	r24, Y+1	; 0x01
    22ac:	98 30       	cpi	r25, 0x08	; 8
    22ae:	e1 f4       	brne	.+56     	; 0x22e8 <TWI_set_char+0x5c>
    22b0:	0e 94 24 11 	call	0x2248	; 0x2248 <TWI_set>
    22b4:	90 91 b9 00 	lds	r25, 0x00B9
    22b8:	98 7f       	andi	r25, 0xF8	; 248
    22ba:	98 31       	cpi	r25, 0x18	; 24
    22bc:	b9 f4       	brne	.+46     	; 0x22ec <TWI_set_char+0x60>
    22be:	81 2f       	mov	r24, r17
    22c0:	0e 94 24 11 	call	0x2248	; 0x2248 <TWI_set>
    22c4:	10 91 b9 00 	lds	r17, 0x00B9
    22c8:	18 7f       	andi	r17, 0xF8	; 248
    22ca:	18 32       	cpi	r17, 0x28	; 40
    22cc:	89 f4       	brne	.+34     	; 0x22f0 <TWI_set_char+0x64>
    22ce:	80 2f       	mov	r24, r16
    22d0:	0e 94 24 11 	call	0x2248	; 0x2248 <TWI_set>
    22d4:	80 91 b9 00 	lds	r24, 0x00B9
    22d8:	88 7f       	andi	r24, 0xF8	; 248
    22da:	88 32       	cpi	r24, 0x28	; 40
    22dc:	51 f4       	brne	.+20     	; 0x22f2 <TWI_set_char+0x66>
    22de:	84 e9       	ldi	r24, 0x94	; 148
    22e0:	80 93 bc 00 	sts	0x00BC, r24
    22e4:	10 e0       	ldi	r17, 0x00	; 0
    22e6:	05 c0       	rjmp	.+10     	; 0x22f2 <TWI_set_char+0x66>
    22e8:	18 e0       	ldi	r17, 0x08	; 8
    22ea:	03 c0       	rjmp	.+6      	; 0x22f2 <TWI_set_char+0x66>
    22ec:	18 e1       	ldi	r17, 0x18	; 24
    22ee:	01 c0       	rjmp	.+2      	; 0x22f2 <TWI_set_char+0x66>
    22f0:	19 e1       	ldi	r17, 0x19	; 25
    22f2:	81 2f       	mov	r24, r17
    22f4:	0f 90       	pop	r0
    22f6:	df 91       	pop	r29
    22f8:	cf 91       	pop	r28
    22fa:	1f 91       	pop	r17
    22fc:	0f 91       	pop	r16
    22fe:	08 95       	ret

00002300 <TWI_get_char>:
    2300:	cf 93       	push	r28
    2302:	df 93       	push	r29
    2304:	c8 2f       	mov	r28, r24
    2306:	d6 2f       	mov	r29, r22
    2308:	0e 94 10 11 	call	0x2220	; 0x2220 <TWI_start>
    230c:	90 91 b9 00 	lds	r25, 0x00B9
    2310:	98 7f       	andi	r25, 0xF8	; 248
    2312:	98 30       	cpi	r25, 0x08	; 8
    2314:	59 f5       	brne	.+86     	; 0x236c <TWI_get_char+0x6c>
    2316:	8c 2f       	mov	r24, r28
    2318:	0e 94 24 11 	call	0x2248	; 0x2248 <TWI_set>
    231c:	90 91 b9 00 	lds	r25, 0x00B9
    2320:	98 7f       	andi	r25, 0xF8	; 248
    2322:	98 31       	cpi	r25, 0x18	; 24
    2324:	29 f5       	brne	.+74     	; 0x2370 <TWI_get_char+0x70>
    2326:	8d 2f       	mov	r24, r29
    2328:	0e 94 24 11 	call	0x2248	; 0x2248 <TWI_set>
    232c:	90 91 b9 00 	lds	r25, 0x00B9
    2330:	98 7f       	andi	r25, 0xF8	; 248
    2332:	98 32       	cpi	r25, 0x28	; 40
    2334:	f9 f4       	brne	.+62     	; 0x2374 <TWI_get_char+0x74>
    2336:	0e 94 18 11 	call	0x2230	; 0x2230 <TWI_restart>
    233a:	90 91 b9 00 	lds	r25, 0x00B9
    233e:	98 7f       	andi	r25, 0xF8	; 248
    2340:	90 31       	cpi	r25, 0x10	; 16
    2342:	d1 f4       	brne	.+52     	; 0x2378 <TWI_get_char+0x78>
    2344:	81 e0       	ldi	r24, 0x01	; 1
    2346:	8c 0f       	add	r24, r28
    2348:	0e 94 24 11 	call	0x2248	; 0x2248 <TWI_set>
    234c:	80 91 b9 00 	lds	r24, 0x00B9
    2350:	88 7f       	andi	r24, 0xF8	; 248
    2352:	80 34       	cpi	r24, 0x40	; 64
    2354:	99 f4       	brne	.+38     	; 0x237c <TWI_get_char+0x7c>
    2356:	0e 94 38 11 	call	0x2270	; 0x2270 <TWI_get_nack>
    235a:	90 91 b9 00 	lds	r25, 0x00B9
    235e:	98 7f       	andi	r25, 0xF8	; 248
    2360:	98 35       	cpi	r25, 0x58	; 88
    2362:	71 f4       	brne	.+28     	; 0x2380 <TWI_get_char+0x80>
    2364:	94 e9       	ldi	r25, 0x94	; 148
    2366:	90 93 bc 00 	sts	0x00BC, r25
    236a:	0b c0       	rjmp	.+22     	; 0x2382 <TWI_get_char+0x82>
    236c:	88 e0       	ldi	r24, 0x08	; 8
    236e:	09 c0       	rjmp	.+18     	; 0x2382 <TWI_get_char+0x82>
    2370:	88 e1       	ldi	r24, 0x18	; 24
    2372:	07 c0       	rjmp	.+14     	; 0x2382 <TWI_get_char+0x82>
    2374:	88 e2       	ldi	r24, 0x28	; 40
    2376:	05 c0       	rjmp	.+10     	; 0x2382 <TWI_get_char+0x82>
    2378:	80 e1       	ldi	r24, 0x10	; 16
    237a:	03 c0       	rjmp	.+6      	; 0x2382 <TWI_get_char+0x82>
    237c:	80 e4       	ldi	r24, 0x40	; 64
    237e:	01 c0       	rjmp	.+2      	; 0x2382 <TWI_get_char+0x82>
    2380:	88 e5       	ldi	r24, 0x58	; 88
    2382:	df 91       	pop	r29
    2384:	cf 91       	pop	r28
    2386:	08 95       	ret

00002388 <TWI_print>:
    2388:	af 92       	push	r10
    238a:	bf 92       	push	r11
    238c:	df 92       	push	r13
    238e:	ef 92       	push	r14
    2390:	ff 92       	push	r15
    2392:	0f 93       	push	r16
    2394:	1f 93       	push	r17
    2396:	cf 93       	push	r28
    2398:	df 93       	push	r29
    239a:	1f 92       	push	r1
    239c:	cd b7       	in	r28, 0x3d	; 61
    239e:	de b7       	in	r29, 0x3e	; 62
    23a0:	16 2f       	mov	r17, r22
    23a2:	f4 2e       	mov	r15, r20
    23a4:	02 2f       	mov	r16, r18
    23a6:	e3 2e       	mov	r14, r19
    23a8:	89 83       	std	Y+1, r24	; 0x01
    23aa:	0e 94 10 11 	call	0x2220	; 0x2220 <TWI_start>
    23ae:	90 91 b9 00 	lds	r25, 0x00B9
    23b2:	98 7f       	andi	r25, 0xF8	; 248
    23b4:	89 81       	ldd	r24, Y+1	; 0x01
    23b6:	98 30       	cpi	r25, 0x08	; 8
    23b8:	31 f5       	brne	.+76     	; 0x2406 <TWI_print+0x7e>
    23ba:	0e 94 24 11 	call	0x2248	; 0x2248 <TWI_set>
    23be:	90 91 b9 00 	lds	r25, 0x00B9
    23c2:	98 7f       	andi	r25, 0xF8	; 248
    23c4:	98 31       	cpi	r25, 0x18	; 24
    23c6:	09 f5       	brne	.+66     	; 0x240a <TWI_print+0x82>
    23c8:	81 2f       	mov	r24, r17
    23ca:	0e 94 24 11 	call	0x2248	; 0x2248 <TWI_set>
    23ce:	10 91 b9 00 	lds	r17, 0x00B9
    23d2:	18 7f       	andi	r17, 0xF8	; 248
    23d4:	18 32       	cpi	r17, 0x28	; 40
    23d6:	d9 f4       	brne	.+54     	; 0x240e <TWI_print+0x86>
    23d8:	d0 2e       	mov	r13, r16
    23da:	a0 2e       	mov	r10, r16
    23dc:	be 2c       	mov	r11, r14
    23de:	8a 2d       	mov	r24, r10
    23e0:	8d 19       	sub	r24, r13
    23e2:	8f 15       	cp	r24, r15
    23e4:	58 f4       	brcc	.+22     	; 0x23fc <TWI_print+0x74>
    23e6:	f5 01       	movw	r30, r10
    23e8:	81 91       	ld	r24, Z+
    23ea:	5f 01       	movw	r10, r30
    23ec:	0e 94 24 11 	call	0x2248	; 0x2248 <TWI_set>
    23f0:	80 91 b9 00 	lds	r24, 0x00B9
    23f4:	88 7f       	andi	r24, 0xF8	; 248
    23f6:	88 32       	cpi	r24, 0x28	; 40
    23f8:	91 f3       	breq	.-28     	; 0x23de <TWI_print+0x56>
    23fa:	0a c0       	rjmp	.+20     	; 0x2410 <TWI_print+0x88>
    23fc:	84 e9       	ldi	r24, 0x94	; 148
    23fe:	80 93 bc 00 	sts	0x00BC, r24
    2402:	10 e0       	ldi	r17, 0x00	; 0
    2404:	05 c0       	rjmp	.+10     	; 0x2410 <TWI_print+0x88>
    2406:	18 e0       	ldi	r17, 0x08	; 8
    2408:	03 c0       	rjmp	.+6      	; 0x2410 <TWI_print+0x88>
    240a:	18 e1       	ldi	r17, 0x18	; 24
    240c:	01 c0       	rjmp	.+2      	; 0x2410 <TWI_print+0x88>
    240e:	19 e1       	ldi	r17, 0x19	; 25
    2410:	81 2f       	mov	r24, r17
    2412:	0f 90       	pop	r0
    2414:	df 91       	pop	r29
    2416:	cf 91       	pop	r28
    2418:	1f 91       	pop	r17
    241a:	0f 91       	pop	r16
    241c:	ff 90       	pop	r15
    241e:	ef 90       	pop	r14
    2420:	df 90       	pop	r13
    2422:	bf 90       	pop	r11
    2424:	af 90       	pop	r10
    2426:	08 95       	ret

00002428 <TWI_receive>:
    2428:	df 92       	push	r13
    242a:	ef 92       	push	r14
    242c:	ff 92       	push	r15
    242e:	0f 93       	push	r16
    2430:	1f 93       	push	r17
    2432:	cf 93       	push	r28
    2434:	df 93       	push	r29
    2436:	d8 2f       	mov	r29, r24
    2438:	f6 2e       	mov	r15, r22
    243a:	c4 2f       	mov	r28, r20
    243c:	89 01       	movw	r16, r18
    243e:	0e 94 10 11 	call	0x2220	; 0x2220 <TWI_start>
    2442:	90 91 b9 00 	lds	r25, 0x00B9
    2446:	98 7f       	andi	r25, 0xF8	; 248
    2448:	98 30       	cpi	r25, 0x08	; 8
    244a:	09 f0       	breq	.+2      	; 0x244e <TWI_receive+0x26>
    244c:	46 c0       	rjmp	.+140    	; 0x24da <TWI_receive+0xb2>
    244e:	8d 2f       	mov	r24, r29
    2450:	0e 94 24 11 	call	0x2248	; 0x2248 <TWI_set>
    2454:	90 91 b9 00 	lds	r25, 0x00B9
    2458:	98 7f       	andi	r25, 0xF8	; 248
    245a:	98 31       	cpi	r25, 0x18	; 24
    245c:	09 f0       	breq	.+2      	; 0x2460 <TWI_receive+0x38>
    245e:	3f c0       	rjmp	.+126    	; 0x24de <TWI_receive+0xb6>
    2460:	8f 2d       	mov	r24, r15
    2462:	0e 94 24 11 	call	0x2248	; 0x2248 <TWI_set>
    2466:	90 91 b9 00 	lds	r25, 0x00B9
    246a:	98 7f       	andi	r25, 0xF8	; 248
    246c:	98 32       	cpi	r25, 0x28	; 40
    246e:	c9 f5       	brne	.+114    	; 0x24e2 <TWI_receive+0xba>
    2470:	0e 94 18 11 	call	0x2230	; 0x2230 <TWI_restart>
    2474:	90 91 b9 00 	lds	r25, 0x00B9
    2478:	98 7f       	andi	r25, 0xF8	; 248
    247a:	90 31       	cpi	r25, 0x10	; 16
    247c:	a1 f5       	brne	.+104    	; 0x24e6 <TWI_receive+0xbe>
    247e:	81 e0       	ldi	r24, 0x01	; 1
    2480:	8d 0f       	add	r24, r29
    2482:	0e 94 24 11 	call	0x2248	; 0x2248 <TWI_set>
    2486:	80 91 b9 00 	lds	r24, 0x00B9
    248a:	88 7f       	andi	r24, 0xF8	; 248
    248c:	80 34       	cpi	r24, 0x40	; 64
    248e:	69 f5       	brne	.+90     	; 0x24ea <TWI_receive+0xc2>
    2490:	d1 2c       	mov	r13, r1
    2492:	d0 e0       	ldi	r29, 0x00	; 0
    2494:	21 97       	sbiw	r28, 0x01	; 1
    2496:	8d 2d       	mov	r24, r13
    2498:	90 e0       	ldi	r25, 0x00	; 0
    249a:	8c 17       	cp	r24, r28
    249c:	9d 07       	cpc	r25, r29
    249e:	74 f4       	brge	.+28     	; 0x24bc <TWI_receive+0x94>
    24a0:	78 01       	movw	r14, r16
    24a2:	e8 0e       	add	r14, r24
    24a4:	f9 1e       	adc	r15, r25
    24a6:	0e 94 2e 11 	call	0x225c	; 0x225c <TWI_get_ack>
    24aa:	f7 01       	movw	r30, r14
    24ac:	80 83       	st	Z, r24
    24ae:	80 91 b9 00 	lds	r24, 0x00B9
    24b2:	88 7f       	andi	r24, 0xF8	; 248
    24b4:	80 35       	cpi	r24, 0x50	; 80
    24b6:	d9 f4       	brne	.+54     	; 0x24ee <TWI_receive+0xc6>
    24b8:	d3 94       	inc	r13
    24ba:	ed cf       	rjmp	.-38     	; 0x2496 <TWI_receive+0x6e>
    24bc:	c0 0f       	add	r28, r16
    24be:	d1 1f       	adc	r29, r17
    24c0:	0e 94 38 11 	call	0x2270	; 0x2270 <TWI_get_nack>
    24c4:	88 83       	st	Y, r24
    24c6:	80 91 b9 00 	lds	r24, 0x00B9
    24ca:	88 7f       	andi	r24, 0xF8	; 248
    24cc:	88 35       	cpi	r24, 0x58	; 88
    24ce:	89 f4       	brne	.+34     	; 0x24f2 <TWI_receive+0xca>
    24d0:	84 e9       	ldi	r24, 0x94	; 148
    24d2:	80 93 bc 00 	sts	0x00BC, r24
    24d6:	80 e0       	ldi	r24, 0x00	; 0
    24d8:	0d c0       	rjmp	.+26     	; 0x24f4 <TWI_receive+0xcc>
    24da:	88 e0       	ldi	r24, 0x08	; 8
    24dc:	0b c0       	rjmp	.+22     	; 0x24f4 <TWI_receive+0xcc>
    24de:	88 e1       	ldi	r24, 0x18	; 24
    24e0:	09 c0       	rjmp	.+18     	; 0x24f4 <TWI_receive+0xcc>
    24e2:	88 e2       	ldi	r24, 0x28	; 40
    24e4:	07 c0       	rjmp	.+14     	; 0x24f4 <TWI_receive+0xcc>
    24e6:	80 e1       	ldi	r24, 0x10	; 16
    24e8:	05 c0       	rjmp	.+10     	; 0x24f4 <TWI_receive+0xcc>
    24ea:	80 e4       	ldi	r24, 0x40	; 64
    24ec:	03 c0       	rjmp	.+6      	; 0x24f4 <TWI_receive+0xcc>
    24ee:	80 e5       	ldi	r24, 0x50	; 80
    24f0:	01 c0       	rjmp	.+2      	; 0x24f4 <TWI_receive+0xcc>
    24f2:	88 e5       	ldi	r24, 0x58	; 88
    24f4:	df 91       	pop	r29
    24f6:	cf 91       	pop	r28
    24f8:	1f 91       	pop	r17
    24fa:	0f 91       	pop	r16
    24fc:	ff 90       	pop	r15
    24fe:	ef 90       	pop	r14
    2500:	df 90       	pop	r13
    2502:	08 95       	ret

00002504 <USART0_init>:
    2504:	80 91 50 06 	lds	r24, 0x0650
    2508:	90 91 51 06 	lds	r25, 0x0651
    250c:	90 93 c5 00 	sts	0x00C5, r25
    2510:	80 93 c4 00 	sts	0x00C4, r24
    2514:	82 e0       	ldi	r24, 0x02	; 2
    2516:	80 93 c0 00 	sts	0x00C0, r24
    251a:	88 e9       	ldi	r24, 0x98	; 152
    251c:	80 93 c1 00 	sts	0x00C1, r24
    2520:	86 e3       	ldi	r24, 0x36	; 54
    2522:	80 93 c2 00 	sts	0x00C2, r24
    2526:	08 95       	ret

00002528 <USART0_set>:
    2528:	90 91 c0 00 	lds	r25, 0x00C0
    252c:	95 ff       	sbrs	r25, 5
    252e:	fc cf       	rjmp	.-8      	; 0x2528 <USART0_set>
    2530:	80 93 c6 00 	sts	0x00C6, r24
    2534:	08 95       	ret

00002536 <USART0_print>:
    2536:	1f 93       	push	r17
    2538:	cf 93       	push	r28
    253a:	df 93       	push	r29
    253c:	ec 01       	movw	r28, r24
    253e:	10 e0       	ldi	r17, 0x00	; 0
    2540:	fe 01       	movw	r30, r28
    2542:	e1 0f       	add	r30, r17
    2544:	f1 1d       	adc	r31, r1
    2546:	80 81       	ld	r24, Z
    2548:	88 23       	and	r24, r24
    254a:	21 f0       	breq	.+8      	; 0x2554 <USART0_print+0x1e>
    254c:	0e 94 94 12 	call	0x2528	; 0x2528 <USART0_set>
    2550:	1f 5f       	subi	r17, 0xFF	; 255
    2552:	f6 cf       	rjmp	.-20     	; 0x2540 <USART0_print+0xa>
    2554:	df 91       	pop	r29
    2556:	cf 91       	pop	r28
    2558:	1f 91       	pop	r17
    255a:	08 95       	ret

0000255c <__vector_25>:
    255c:	1f 92       	push	r1
    255e:	0f 92       	push	r0
    2560:	0f b6       	in	r0, 0x3f	; 63
    2562:	0f 92       	push	r0
    2564:	11 24       	eor	r1, r1
    2566:	8f 93       	push	r24
    2568:	80 91 c6 00 	lds	r24, 0x00C6
    256c:	80 93 4e 06 	sts	0x064E, r24
    2570:	81 e0       	ldi	r24, 0x01	; 1
    2572:	80 93 f2 06 	sts	0x06F2, r24
    2576:	8f 91       	pop	r24
    2578:	0f 90       	pop	r0
    257a:	0f be       	out	0x3f, r0	; 63
    257c:	0f 90       	pop	r0
    257e:	1f 90       	pop	r1
    2580:	18 95       	reti

00002582 <get_Arg>:
    2582:	fc 01       	movw	r30, r24
    2584:	81 81       	ldd	r24, Z+1	; 0x01
    2586:	80 53       	subi	r24, 0x30	; 48
    2588:	90 81       	ld	r25, Z
    258a:	90 53       	subi	r25, 0x30	; 48
    258c:	2a e0       	ldi	r18, 0x0A	; 10
    258e:	92 9f       	mul	r25, r18
    2590:	80 0d       	add	r24, r0
    2592:	11 24       	eor	r1, r1
    2594:	08 95       	ret

00002596 <USART0_print_conf>:
    2596:	0f 93       	push	r16
    2598:	1f 93       	push	r17
    259a:	cf 93       	push	r28
    259c:	df 93       	push	r29
    259e:	cd b7       	in	r28, 0x3d	; 61
    25a0:	de b7       	in	r29, 0x3e	; 62
    25a2:	2a 97       	sbiw	r28, 0x0a	; 10
    25a4:	0f b6       	in	r0, 0x3f	; 63
    25a6:	f8 94       	cli
    25a8:	de bf       	out	0x3e, r29	; 62
    25aa:	0f be       	out	0x3f, r0	; 63
    25ac:	cd bf       	out	0x3d, r28	; 61
    25ae:	83 ee       	ldi	r24, 0xE3	; 227
    25b0:	93 e0       	ldi	r25, 0x03	; 3
    25b2:	0e 94 9b 12 	call	0x2536	; 0x2536 <USART0_print>
    25b6:	85 ef       	ldi	r24, 0xF5	; 245
    25b8:	93 e0       	ldi	r25, 0x03	; 3
    25ba:	0e 94 9b 12 	call	0x2536	; 0x2536 <USART0_print>
    25be:	80 e0       	ldi	r24, 0x00	; 0
    25c0:	94 e0       	ldi	r25, 0x04	; 4
    25c2:	0e 94 9b 12 	call	0x2536	; 0x2536 <USART0_print>
    25c6:	80 91 74 06 	lds	r24, 0x0674
    25ca:	4a e0       	ldi	r20, 0x0A	; 10
    25cc:	be 01       	movw	r22, r28
    25ce:	6f 5f       	subi	r22, 0xFF	; 255
    25d0:	7f 4f       	sbci	r23, 0xFF	; 255
    25d2:	90 e0       	ldi	r25, 0x00	; 0
    25d4:	0e 94 96 17 	call	0x2f2c	; 0x2f2c <__itoa_ncheck>
    25d8:	0e 94 9b 12 	call	0x2536	; 0x2536 <USART0_print>
    25dc:	85 e0       	ldi	r24, 0x05	; 5
    25de:	94 e0       	ldi	r25, 0x04	; 4
    25e0:	0e 94 9b 12 	call	0x2536	; 0x2536 <USART0_print>
    25e4:	86 e4       	ldi	r24, 0x46	; 70
    25e6:	94 e0       	ldi	r25, 0x04	; 4
    25e8:	0e 94 9b 12 	call	0x2536	; 0x2536 <USART0_print>
    25ec:	8f e4       	ldi	r24, 0x4F	; 79
    25ee:	94 e0       	ldi	r25, 0x04	; 4
    25f0:	0e 94 9b 12 	call	0x2536	; 0x2536 <USART0_print>
    25f4:	e0 91 f0 06 	lds	r30, 0x06F0
    25f8:	f0 91 f1 06 	lds	r31, 0x06F1
    25fc:	80 81       	ld	r24, Z
    25fe:	4a e0       	ldi	r20, 0x0A	; 10
    2600:	be 01       	movw	r22, r28
    2602:	6f 5f       	subi	r22, 0xFF	; 255
    2604:	7f 4f       	sbci	r23, 0xFF	; 255
    2606:	90 e0       	ldi	r25, 0x00	; 0
    2608:	0e 94 96 17 	call	0x2f2c	; 0x2f2c <__itoa_ncheck>
    260c:	0e 94 9b 12 	call	0x2536	; 0x2536 <USART0_print>
    2610:	84 e5       	ldi	r24, 0x54	; 84
    2612:	94 e0       	ldi	r25, 0x04	; 4
    2614:	0e 94 9b 12 	call	0x2536	; 0x2536 <USART0_print>
    2618:	8f e5       	ldi	r24, 0x5F	; 95
    261a:	94 e0       	ldi	r25, 0x04	; 4
    261c:	0e 94 9b 12 	call	0x2536	; 0x2536 <USART0_print>
    2620:	e0 91 f0 06 	lds	r30, 0x06F0
    2624:	f0 91 f1 06 	lds	r31, 0x06F1
    2628:	81 81       	ldd	r24, Z+1	; 0x01
    262a:	4a e0       	ldi	r20, 0x0A	; 10
    262c:	be 01       	movw	r22, r28
    262e:	6f 5f       	subi	r22, 0xFF	; 255
    2630:	7f 4f       	sbci	r23, 0xFF	; 255
    2632:	90 e0       	ldi	r25, 0x00	; 0
    2634:	0e 94 96 17 	call	0x2f2c	; 0x2f2c <__itoa_ncheck>
    2638:	0e 94 9b 12 	call	0x2536	; 0x2536 <USART0_print>
    263c:	84 e6       	ldi	r24, 0x64	; 100
    263e:	94 e0       	ldi	r25, 0x04	; 4
    2640:	0e 94 9b 12 	call	0x2536	; 0x2536 <USART0_print>
    2644:	8f e6       	ldi	r24, 0x6F	; 111
    2646:	94 e0       	ldi	r25, 0x04	; 4
    2648:	0e 94 9b 12 	call	0x2536	; 0x2536 <USART0_print>
    264c:	e0 91 f0 06 	lds	r30, 0x06F0
    2650:	f0 91 f1 06 	lds	r31, 0x06F1
    2654:	82 81       	ldd	r24, Z+2	; 0x02
    2656:	4a e0       	ldi	r20, 0x0A	; 10
    2658:	be 01       	movw	r22, r28
    265a:	6f 5f       	subi	r22, 0xFF	; 255
    265c:	7f 4f       	sbci	r23, 0xFF	; 255
    265e:	90 e0       	ldi	r25, 0x00	; 0
    2660:	0e 94 96 17 	call	0x2f2c	; 0x2f2c <__itoa_ncheck>
    2664:	0e 94 9b 12 	call	0x2536	; 0x2536 <USART0_print>
    2668:	84 e7       	ldi	r24, 0x74	; 116
    266a:	94 e0       	ldi	r25, 0x04	; 4
    266c:	0e 94 9b 12 	call	0x2536	; 0x2536 <USART0_print>
    2670:	8d e7       	ldi	r24, 0x7D	; 125
    2672:	94 e0       	ldi	r25, 0x04	; 4
    2674:	0e 94 9b 12 	call	0x2536	; 0x2536 <USART0_print>
    2678:	80 91 f0 06 	lds	r24, 0x06F0
    267c:	90 91 f1 06 	lds	r25, 0x06F1
    2680:	03 96       	adiw	r24, 0x03	; 3
    2682:	0e 94 9b 12 	call	0x2536	; 0x2536 <USART0_print>
    2686:	82 e8       	ldi	r24, 0x82	; 130
    2688:	94 e0       	ldi	r25, 0x04	; 4
    268a:	0e 94 9b 12 	call	0x2536	; 0x2536 <USART0_print>
    268e:	88 e9       	ldi	r24, 0x98	; 152
    2690:	94 e0       	ldi	r25, 0x04	; 4
    2692:	0e 94 9b 12 	call	0x2536	; 0x2536 <USART0_print>
    2696:	e0 91 f0 06 	lds	r30, 0x06F0
    269a:	f0 91 f1 06 	lds	r31, 0x06F1
    269e:	86 81       	ldd	r24, Z+6	; 0x06
    26a0:	4a e0       	ldi	r20, 0x0A	; 10
    26a2:	be 01       	movw	r22, r28
    26a4:	6f 5f       	subi	r22, 0xFF	; 255
    26a6:	7f 4f       	sbci	r23, 0xFF	; 255
    26a8:	90 e0       	ldi	r25, 0x00	; 0
    26aa:	0e 94 96 17 	call	0x2f2c	; 0x2f2c <__itoa_ncheck>
    26ae:	0e 94 9b 12 	call	0x2536	; 0x2536 <USART0_print>
    26b2:	8d e9       	ldi	r24, 0x9D	; 157
    26b4:	94 e0       	ldi	r25, 0x04	; 4
    26b6:	0e 94 9b 12 	call	0x2536	; 0x2536 <USART0_print>
    26ba:	8a ea       	ldi	r24, 0xAA	; 170
    26bc:	94 e0       	ldi	r25, 0x04	; 4
    26be:	0e 94 9b 12 	call	0x2536	; 0x2536 <USART0_print>
    26c2:	e0 91 f0 06 	lds	r30, 0x06F0
    26c6:	f0 91 f1 06 	lds	r31, 0x06F1
    26ca:	87 81       	ldd	r24, Z+7	; 0x07
    26cc:	4a e0       	ldi	r20, 0x0A	; 10
    26ce:	be 01       	movw	r22, r28
    26d0:	6f 5f       	subi	r22, 0xFF	; 255
    26d2:	7f 4f       	sbci	r23, 0xFF	; 255
    26d4:	90 e0       	ldi	r25, 0x00	; 0
    26d6:	0e 94 96 17 	call	0x2f2c	; 0x2f2c <__itoa_ncheck>
    26da:	0e 94 9b 12 	call	0x2536	; 0x2536 <USART0_print>
    26de:	8f ea       	ldi	r24, 0xAF	; 175
    26e0:	94 e0       	ldi	r25, 0x04	; 4
    26e2:	0e 94 9b 12 	call	0x2536	; 0x2536 <USART0_print>
    26e6:	8d eb       	ldi	r24, 0xBD	; 189
    26e8:	94 e0       	ldi	r25, 0x04	; 4
    26ea:	0e 94 9b 12 	call	0x2536	; 0x2536 <USART0_print>
    26ee:	e0 91 f0 06 	lds	r30, 0x06F0
    26f2:	f0 91 f1 06 	lds	r31, 0x06F1
    26f6:	80 85       	ldd	r24, Z+8	; 0x08
    26f8:	4a e0       	ldi	r20, 0x0A	; 10
    26fa:	be 01       	movw	r22, r28
    26fc:	6f 5f       	subi	r22, 0xFF	; 255
    26fe:	7f 4f       	sbci	r23, 0xFF	; 255
    2700:	90 e0       	ldi	r25, 0x00	; 0
    2702:	0e 94 96 17 	call	0x2f2c	; 0x2f2c <__itoa_ncheck>
    2706:	0e 94 9b 12 	call	0x2536	; 0x2536 <USART0_print>
    270a:	82 ec       	ldi	r24, 0xC2	; 194
    270c:	94 e0       	ldi	r25, 0x04	; 4
    270e:	0e 94 9b 12 	call	0x2536	; 0x2536 <USART0_print>
    2712:	84 ed       	ldi	r24, 0xD4	; 212
    2714:	94 e0       	ldi	r25, 0x04	; 4
    2716:	0e 94 9b 12 	call	0x2536	; 0x2536 <USART0_print>
    271a:	80 ee       	ldi	r24, 0xE0	; 224
    271c:	94 e0       	ldi	r25, 0x04	; 4
    271e:	0e 94 9b 12 	call	0x2536	; 0x2536 <USART0_print>
    2722:	60 91 a6 06 	lds	r22, 0x06A6
    2726:	70 91 a7 06 	lds	r23, 0x06A7
    272a:	80 91 a8 06 	lds	r24, 0x06A8
    272e:	90 91 a9 06 	lds	r25, 0x06A9
    2732:	8e 01       	movw	r16, r28
    2734:	0f 5f       	subi	r16, 0xFF	; 255
    2736:	1f 4f       	sbci	r17, 0xFF	; 255
    2738:	23 e0       	ldi	r18, 0x03	; 3
    273a:	40 e0       	ldi	r20, 0x00	; 0
    273c:	0e 94 38 17 	call	0x2e70	; 0x2e70 <dtostrf>
    2740:	0e 94 9b 12 	call	0x2536	; 0x2536 <USART0_print>
    2744:	85 ee       	ldi	r24, 0xE5	; 229
    2746:	94 e0       	ldi	r25, 0x04	; 4
    2748:	0e 94 9b 12 	call	0x2536	; 0x2536 <USART0_print>
    274c:	86 ef       	ldi	r24, 0xF6	; 246
    274e:	94 e0       	ldi	r25, 0x04	; 4
    2750:	0e 94 9b 12 	call	0x2536	; 0x2536 <USART0_print>
    2754:	60 91 aa 06 	lds	r22, 0x06AA
    2758:	70 91 ab 06 	lds	r23, 0x06AB
    275c:	80 91 ac 06 	lds	r24, 0x06AC
    2760:	90 91 ad 06 	lds	r25, 0x06AD
    2764:	23 e0       	ldi	r18, 0x03	; 3
    2766:	40 e0       	ldi	r20, 0x00	; 0
    2768:	0e 94 38 17 	call	0x2e70	; 0x2e70 <dtostrf>
    276c:	0e 94 9b 12 	call	0x2536	; 0x2536 <USART0_print>
    2770:	8b ef       	ldi	r24, 0xFB	; 251
    2772:	94 e0       	ldi	r25, 0x04	; 4
    2774:	0e 94 9b 12 	call	0x2536	; 0x2536 <USART0_print>
    2778:	8c e0       	ldi	r24, 0x0C	; 12
    277a:	95 e0       	ldi	r25, 0x05	; 5
    277c:	0e 94 9b 12 	call	0x2536	; 0x2536 <USART0_print>
    2780:	4a e0       	ldi	r20, 0x0A	; 10
    2782:	b8 01       	movw	r22, r16
    2784:	80 91 ba 06 	lds	r24, 0x06BA
    2788:	90 91 bb 06 	lds	r25, 0x06BB
    278c:	0e 94 96 17 	call	0x2f2c	; 0x2f2c <__itoa_ncheck>
    2790:	0e 94 9b 12 	call	0x2536	; 0x2536 <USART0_print>
    2794:	81 e1       	ldi	r24, 0x11	; 17
    2796:	95 e0       	ldi	r25, 0x05	; 5
    2798:	0e 94 9b 12 	call	0x2536	; 0x2536 <USART0_print>
    279c:	89 e3       	ldi	r24, 0x39	; 57
    279e:	95 e0       	ldi	r25, 0x05	; 5
    27a0:	0e 94 9b 12 	call	0x2536	; 0x2536 <USART0_print>
    27a4:	88 e4       	ldi	r24, 0x48	; 72
    27a6:	95 e0       	ldi	r25, 0x05	; 5
    27a8:	0e 94 9b 12 	call	0x2536	; 0x2536 <USART0_print>
    27ac:	4a e0       	ldi	r20, 0x0A	; 10
    27ae:	b8 01       	movw	r22, r16
    27b0:	80 91 cc 06 	lds	r24, 0x06CC
    27b4:	90 91 cd 06 	lds	r25, 0x06CD
    27b8:	0e 94 96 17 	call	0x2f2c	; 0x2f2c <__itoa_ncheck>
    27bc:	0e 94 9b 12 	call	0x2536	; 0x2536 <USART0_print>
    27c0:	8d e4       	ldi	r24, 0x4D	; 77
    27c2:	95 e0       	ldi	r25, 0x05	; 5
    27c4:	0e 94 9b 12 	call	0x2536	; 0x2536 <USART0_print>
    27c8:	8e e7       	ldi	r24, 0x7E	; 126
    27ca:	95 e0       	ldi	r25, 0x05	; 5
    27cc:	0e 94 9b 12 	call	0x2536	; 0x2536 <USART0_print>
    27d0:	4a e0       	ldi	r20, 0x0A	; 10
    27d2:	b8 01       	movw	r22, r16
    27d4:	80 91 ce 06 	lds	r24, 0x06CE
    27d8:	90 91 cf 06 	lds	r25, 0x06CF
    27dc:	0e 94 96 17 	call	0x2f2c	; 0x2f2c <__itoa_ncheck>
    27e0:	0e 94 9b 12 	call	0x2536	; 0x2536 <USART0_print>
    27e4:	83 e8       	ldi	r24, 0x83	; 131
    27e6:	95 e0       	ldi	r25, 0x05	; 5
    27e8:	0e 94 9b 12 	call	0x2536	; 0x2536 <USART0_print>
    27ec:	84 eb       	ldi	r24, 0xB4	; 180
    27ee:	95 e0       	ldi	r25, 0x05	; 5
    27f0:	0e 94 9b 12 	call	0x2536	; 0x2536 <USART0_print>
    27f4:	60 91 d0 06 	lds	r22, 0x06D0
    27f8:	70 91 d1 06 	lds	r23, 0x06D1
    27fc:	80 91 d2 06 	lds	r24, 0x06D2
    2800:	90 91 d3 06 	lds	r25, 0x06D3
    2804:	23 e0       	ldi	r18, 0x03	; 3
    2806:	40 e0       	ldi	r20, 0x00	; 0
    2808:	0e 94 38 17 	call	0x2e70	; 0x2e70 <dtostrf>
    280c:	0e 94 9b 12 	call	0x2536	; 0x2536 <USART0_print>
    2810:	89 eb       	ldi	r24, 0xB9	; 185
    2812:	95 e0       	ldi	r25, 0x05	; 5
    2814:	0e 94 9b 12 	call	0x2536	; 0x2536 <USART0_print>
    2818:	81 ee       	ldi	r24, 0xE1	; 225
    281a:	95 e0       	ldi	r25, 0x05	; 5
    281c:	0e 94 9b 12 	call	0x2536	; 0x2536 <USART0_print>
    2820:	60 91 d4 06 	lds	r22, 0x06D4
    2824:	70 91 d5 06 	lds	r23, 0x06D5
    2828:	80 91 d6 06 	lds	r24, 0x06D6
    282c:	90 91 d7 06 	lds	r25, 0x06D7
    2830:	23 e0       	ldi	r18, 0x03	; 3
    2832:	40 e0       	ldi	r20, 0x00	; 0
    2834:	0e 94 38 17 	call	0x2e70	; 0x2e70 <dtostrf>
    2838:	0e 94 9b 12 	call	0x2536	; 0x2536 <USART0_print>
    283c:	86 ee       	ldi	r24, 0xE6	; 230
    283e:	95 e0       	ldi	r25, 0x05	; 5
    2840:	0e 94 9b 12 	call	0x2536	; 0x2536 <USART0_print>
    2844:	8e e0       	ldi	r24, 0x0E	; 14
    2846:	96 e0       	ldi	r25, 0x06	; 6
    2848:	0e 94 9b 12 	call	0x2536	; 0x2536 <USART0_print>
    284c:	60 91 d8 06 	lds	r22, 0x06D8
    2850:	70 91 d9 06 	lds	r23, 0x06D9
    2854:	80 91 da 06 	lds	r24, 0x06DA
    2858:	90 91 db 06 	lds	r25, 0x06DB
    285c:	23 e0       	ldi	r18, 0x03	; 3
    285e:	40 e0       	ldi	r20, 0x00	; 0
    2860:	0e 94 38 17 	call	0x2e70	; 0x2e70 <dtostrf>
    2864:	0e 94 9b 12 	call	0x2536	; 0x2536 <USART0_print>
    2868:	83 e1       	ldi	r24, 0x13	; 19
    286a:	96 e0       	ldi	r25, 0x06	; 6
    286c:	0e 94 9b 12 	call	0x2536	; 0x2536 <USART0_print>
    2870:	2a 96       	adiw	r28, 0x0a	; 10
    2872:	0f b6       	in	r0, 0x3f	; 63
    2874:	f8 94       	cli
    2876:	de bf       	out	0x3e, r29	; 62
    2878:	0f be       	out	0x3f, r0	; 63
    287a:	cd bf       	out	0x3d, r28	; 61
    287c:	df 91       	pop	r29
    287e:	cf 91       	pop	r28
    2880:	1f 91       	pop	r17
    2882:	0f 91       	pop	r16
    2884:	08 95       	ret

00002886 <__udivmodqi4>:
    2886:	99 1b       	sub	r25, r25
    2888:	79 e0       	ldi	r23, 0x09	; 9
    288a:	04 c0       	rjmp	.+8      	; 0x2894 <__udivmodqi4_ep>

0000288c <__udivmodqi4_loop>:
    288c:	99 1f       	adc	r25, r25
    288e:	96 17       	cp	r25, r22
    2890:	08 f0       	brcs	.+2      	; 0x2894 <__udivmodqi4_ep>
    2892:	96 1b       	sub	r25, r22

00002894 <__udivmodqi4_ep>:
    2894:	88 1f       	adc	r24, r24
    2896:	7a 95       	dec	r23
    2898:	c9 f7       	brne	.-14     	; 0x288c <__udivmodqi4_loop>
    289a:	80 95       	com	r24
    289c:	08 95       	ret

0000289e <__udivmodhi4>:
    289e:	aa 1b       	sub	r26, r26
    28a0:	bb 1b       	sub	r27, r27
    28a2:	51 e1       	ldi	r21, 0x11	; 17
    28a4:	07 c0       	rjmp	.+14     	; 0x28b4 <__udivmodhi4_ep>

000028a6 <__udivmodhi4_loop>:
    28a6:	aa 1f       	adc	r26, r26
    28a8:	bb 1f       	adc	r27, r27
    28aa:	a6 17       	cp	r26, r22
    28ac:	b7 07       	cpc	r27, r23
    28ae:	10 f0       	brcs	.+4      	; 0x28b4 <__udivmodhi4_ep>
    28b0:	a6 1b       	sub	r26, r22
    28b2:	b7 0b       	sbc	r27, r23

000028b4 <__udivmodhi4_ep>:
    28b4:	88 1f       	adc	r24, r24
    28b6:	99 1f       	adc	r25, r25
    28b8:	5a 95       	dec	r21
    28ba:	a9 f7       	brne	.-22     	; 0x28a6 <__udivmodhi4_loop>
    28bc:	80 95       	com	r24
    28be:	90 95       	com	r25
    28c0:	bc 01       	movw	r22, r24
    28c2:	cd 01       	movw	r24, r26
    28c4:	08 95       	ret

000028c6 <__udivmodsi4>:
    28c6:	a1 e2       	ldi	r26, 0x21	; 33
    28c8:	1a 2e       	mov	r1, r26
    28ca:	aa 1b       	sub	r26, r26
    28cc:	bb 1b       	sub	r27, r27
    28ce:	fd 01       	movw	r30, r26
    28d0:	0d c0       	rjmp	.+26     	; 0x28ec <__udivmodsi4_ep>

000028d2 <__udivmodsi4_loop>:
    28d2:	aa 1f       	adc	r26, r26
    28d4:	bb 1f       	adc	r27, r27
    28d6:	ee 1f       	adc	r30, r30
    28d8:	ff 1f       	adc	r31, r31
    28da:	a2 17       	cp	r26, r18
    28dc:	b3 07       	cpc	r27, r19
    28de:	e4 07       	cpc	r30, r20
    28e0:	f5 07       	cpc	r31, r21
    28e2:	20 f0       	brcs	.+8      	; 0x28ec <__udivmodsi4_ep>
    28e4:	a2 1b       	sub	r26, r18
    28e6:	b3 0b       	sbc	r27, r19
    28e8:	e4 0b       	sbc	r30, r20
    28ea:	f5 0b       	sbc	r31, r21

000028ec <__udivmodsi4_ep>:
    28ec:	66 1f       	adc	r22, r22
    28ee:	77 1f       	adc	r23, r23
    28f0:	88 1f       	adc	r24, r24
    28f2:	99 1f       	adc	r25, r25
    28f4:	1a 94       	dec	r1
    28f6:	69 f7       	brne	.-38     	; 0x28d2 <__udivmodsi4_loop>
    28f8:	60 95       	com	r22
    28fa:	70 95       	com	r23
    28fc:	80 95       	com	r24
    28fe:	90 95       	com	r25
    2900:	9b 01       	movw	r18, r22
    2902:	ac 01       	movw	r20, r24
    2904:	bd 01       	movw	r22, r26
    2906:	cf 01       	movw	r24, r30
    2908:	08 95       	ret

0000290a <__divmodsi4>:
    290a:	05 2e       	mov	r0, r21
    290c:	97 fb       	bst	r25, 7
    290e:	1e f4       	brtc	.+6      	; 0x2916 <__divmodsi4+0xc>
    2910:	00 94       	com	r0
    2912:	0e 94 9c 14 	call	0x2938	; 0x2938 <__negsi2>
    2916:	57 fd       	sbrc	r21, 7
    2918:	07 d0       	rcall	.+14     	; 0x2928 <__divmodsi4_neg2>
    291a:	0e 94 63 14 	call	0x28c6	; 0x28c6 <__udivmodsi4>
    291e:	07 fc       	sbrc	r0, 7
    2920:	03 d0       	rcall	.+6      	; 0x2928 <__divmodsi4_neg2>
    2922:	4e f4       	brtc	.+18     	; 0x2936 <__divmodsi4_exit>
    2924:	0c 94 9c 14 	jmp	0x2938	; 0x2938 <__negsi2>

00002928 <__divmodsi4_neg2>:
    2928:	50 95       	com	r21
    292a:	40 95       	com	r20
    292c:	30 95       	com	r19
    292e:	21 95       	neg	r18
    2930:	3f 4f       	sbci	r19, 0xFF	; 255
    2932:	4f 4f       	sbci	r20, 0xFF	; 255
    2934:	5f 4f       	sbci	r21, 0xFF	; 255

00002936 <__divmodsi4_exit>:
    2936:	08 95       	ret

00002938 <__negsi2>:
    2938:	90 95       	com	r25
    293a:	80 95       	com	r24
    293c:	70 95       	com	r23
    293e:	61 95       	neg	r22
    2940:	7f 4f       	sbci	r23, 0xFF	; 255
    2942:	8f 4f       	sbci	r24, 0xFF	; 255
    2944:	9f 4f       	sbci	r25, 0xFF	; 255
    2946:	08 95       	ret

00002948 <__tablejump2__>:
    2948:	ee 0f       	add	r30, r30
    294a:	ff 1f       	adc	r31, r31

0000294c <__tablejump__>:
    294c:	05 90       	lpm	r0, Z+
    294e:	f4 91       	lpm	r31, Z
    2950:	e0 2d       	mov	r30, r0
    2952:	19 94       	eijmp

00002954 <__usmulhisi3>:
    2954:	0e 94 bc 14 	call	0x2978	; 0x2978 <__umulhisi3>

00002958 <__usmulhisi3_tail>:
    2958:	b7 ff       	sbrs	r27, 7
    295a:	08 95       	ret
    295c:	82 1b       	sub	r24, r18
    295e:	93 0b       	sbc	r25, r19
    2960:	08 95       	ret

00002962 <__muluhisi3>:
    2962:	0e 94 bc 14 	call	0x2978	; 0x2978 <__umulhisi3>
    2966:	a5 9f       	mul	r26, r21
    2968:	90 0d       	add	r25, r0
    296a:	b4 9f       	mul	r27, r20
    296c:	90 0d       	add	r25, r0
    296e:	a4 9f       	mul	r26, r20
    2970:	80 0d       	add	r24, r0
    2972:	91 1d       	adc	r25, r1
    2974:	11 24       	eor	r1, r1
    2976:	08 95       	ret

00002978 <__umulhisi3>:
    2978:	a2 9f       	mul	r26, r18
    297a:	b0 01       	movw	r22, r0
    297c:	b3 9f       	mul	r27, r19
    297e:	c0 01       	movw	r24, r0
    2980:	a3 9f       	mul	r26, r19
    2982:	70 0d       	add	r23, r0
    2984:	81 1d       	adc	r24, r1
    2986:	11 24       	eor	r1, r1
    2988:	91 1d       	adc	r25, r1
    298a:	b2 9f       	mul	r27, r18
    298c:	70 0d       	add	r23, r0
    298e:	81 1d       	adc	r24, r1
    2990:	11 24       	eor	r1, r1
    2992:	91 1d       	adc	r25, r1
    2994:	08 95       	ret

00002996 <__subsf3>:
    2996:	50 58       	subi	r21, 0x80	; 128

00002998 <__addsf3>:
    2998:	bb 27       	eor	r27, r27
    299a:	aa 27       	eor	r26, r26
    299c:	0e d0       	rcall	.+28     	; 0x29ba <__addsf3x>
    299e:	70 c1       	rjmp	.+736    	; 0x2c80 <__fp_round>
    29a0:	61 d1       	rcall	.+706    	; 0x2c64 <__fp_pscA>
    29a2:	30 f0       	brcs	.+12     	; 0x29b0 <__addsf3+0x18>
    29a4:	66 d1       	rcall	.+716    	; 0x2c72 <__fp_pscB>
    29a6:	20 f0       	brcs	.+8      	; 0x29b0 <__addsf3+0x18>
    29a8:	31 f4       	brne	.+12     	; 0x29b6 <__addsf3+0x1e>
    29aa:	9f 3f       	cpi	r25, 0xFF	; 255
    29ac:	11 f4       	brne	.+4      	; 0x29b2 <__addsf3+0x1a>
    29ae:	1e f4       	brtc	.+6      	; 0x29b6 <__addsf3+0x1e>
    29b0:	56 c1       	rjmp	.+684    	; 0x2c5e <__fp_nan>
    29b2:	0e f4       	brtc	.+2      	; 0x29b6 <__addsf3+0x1e>
    29b4:	e0 95       	com	r30
    29b6:	e7 fb       	bst	r30, 7
    29b8:	4c c1       	rjmp	.+664    	; 0x2c52 <__fp_inf>

000029ba <__addsf3x>:
    29ba:	e9 2f       	mov	r30, r25
    29bc:	72 d1       	rcall	.+740    	; 0x2ca2 <__fp_split3>
    29be:	80 f3       	brcs	.-32     	; 0x29a0 <__addsf3+0x8>
    29c0:	ba 17       	cp	r27, r26
    29c2:	62 07       	cpc	r22, r18
    29c4:	73 07       	cpc	r23, r19
    29c6:	84 07       	cpc	r24, r20
    29c8:	95 07       	cpc	r25, r21
    29ca:	18 f0       	brcs	.+6      	; 0x29d2 <__addsf3x+0x18>
    29cc:	71 f4       	brne	.+28     	; 0x29ea <__addsf3x+0x30>
    29ce:	9e f5       	brtc	.+102    	; 0x2a36 <__addsf3x+0x7c>
    29d0:	8a c1       	rjmp	.+788    	; 0x2ce6 <__fp_zero>
    29d2:	0e f4       	brtc	.+2      	; 0x29d6 <__addsf3x+0x1c>
    29d4:	e0 95       	com	r30
    29d6:	0b 2e       	mov	r0, r27
    29d8:	ba 2f       	mov	r27, r26
    29da:	a0 2d       	mov	r26, r0
    29dc:	0b 01       	movw	r0, r22
    29de:	b9 01       	movw	r22, r18
    29e0:	90 01       	movw	r18, r0
    29e2:	0c 01       	movw	r0, r24
    29e4:	ca 01       	movw	r24, r20
    29e6:	a0 01       	movw	r20, r0
    29e8:	11 24       	eor	r1, r1
    29ea:	ff 27       	eor	r31, r31
    29ec:	59 1b       	sub	r21, r25
    29ee:	99 f0       	breq	.+38     	; 0x2a16 <__addsf3x+0x5c>
    29f0:	59 3f       	cpi	r21, 0xF9	; 249
    29f2:	50 f4       	brcc	.+20     	; 0x2a08 <__addsf3x+0x4e>
    29f4:	50 3e       	cpi	r21, 0xE0	; 224
    29f6:	68 f1       	brcs	.+90     	; 0x2a52 <__addsf3x+0x98>
    29f8:	1a 16       	cp	r1, r26
    29fa:	f0 40       	sbci	r31, 0x00	; 0
    29fc:	a2 2f       	mov	r26, r18
    29fe:	23 2f       	mov	r18, r19
    2a00:	34 2f       	mov	r19, r20
    2a02:	44 27       	eor	r20, r20
    2a04:	58 5f       	subi	r21, 0xF8	; 248
    2a06:	f3 cf       	rjmp	.-26     	; 0x29ee <__addsf3x+0x34>
    2a08:	46 95       	lsr	r20
    2a0a:	37 95       	ror	r19
    2a0c:	27 95       	ror	r18
    2a0e:	a7 95       	ror	r26
    2a10:	f0 40       	sbci	r31, 0x00	; 0
    2a12:	53 95       	inc	r21
    2a14:	c9 f7       	brne	.-14     	; 0x2a08 <__addsf3x+0x4e>
    2a16:	7e f4       	brtc	.+30     	; 0x2a36 <__addsf3x+0x7c>
    2a18:	1f 16       	cp	r1, r31
    2a1a:	ba 0b       	sbc	r27, r26
    2a1c:	62 0b       	sbc	r22, r18
    2a1e:	73 0b       	sbc	r23, r19
    2a20:	84 0b       	sbc	r24, r20
    2a22:	ba f0       	brmi	.+46     	; 0x2a52 <__addsf3x+0x98>
    2a24:	91 50       	subi	r25, 0x01	; 1
    2a26:	a1 f0       	breq	.+40     	; 0x2a50 <__addsf3x+0x96>
    2a28:	ff 0f       	add	r31, r31
    2a2a:	bb 1f       	adc	r27, r27
    2a2c:	66 1f       	adc	r22, r22
    2a2e:	77 1f       	adc	r23, r23
    2a30:	88 1f       	adc	r24, r24
    2a32:	c2 f7       	brpl	.-16     	; 0x2a24 <__addsf3x+0x6a>
    2a34:	0e c0       	rjmp	.+28     	; 0x2a52 <__addsf3x+0x98>
    2a36:	ba 0f       	add	r27, r26
    2a38:	62 1f       	adc	r22, r18
    2a3a:	73 1f       	adc	r23, r19
    2a3c:	84 1f       	adc	r24, r20
    2a3e:	48 f4       	brcc	.+18     	; 0x2a52 <__addsf3x+0x98>
    2a40:	87 95       	ror	r24
    2a42:	77 95       	ror	r23
    2a44:	67 95       	ror	r22
    2a46:	b7 95       	ror	r27
    2a48:	f7 95       	ror	r31
    2a4a:	9e 3f       	cpi	r25, 0xFE	; 254
    2a4c:	08 f0       	brcs	.+2      	; 0x2a50 <__addsf3x+0x96>
    2a4e:	b3 cf       	rjmp	.-154    	; 0x29b6 <__addsf3+0x1e>
    2a50:	93 95       	inc	r25
    2a52:	88 0f       	add	r24, r24
    2a54:	08 f0       	brcs	.+2      	; 0x2a58 <__addsf3x+0x9e>
    2a56:	99 27       	eor	r25, r25
    2a58:	ee 0f       	add	r30, r30
    2a5a:	97 95       	ror	r25
    2a5c:	87 95       	ror	r24
    2a5e:	08 95       	ret

00002a60 <__cmpsf2>:
    2a60:	d4 d0       	rcall	.+424    	; 0x2c0a <__fp_cmp>
    2a62:	08 f4       	brcc	.+2      	; 0x2a66 <__cmpsf2+0x6>
    2a64:	81 e0       	ldi	r24, 0x01	; 1
    2a66:	08 95       	ret

00002a68 <__divsf3>:
    2a68:	0c d0       	rcall	.+24     	; 0x2a82 <__divsf3x>
    2a6a:	0a c1       	rjmp	.+532    	; 0x2c80 <__fp_round>
    2a6c:	02 d1       	rcall	.+516    	; 0x2c72 <__fp_pscB>
    2a6e:	40 f0       	brcs	.+16     	; 0x2a80 <__divsf3+0x18>
    2a70:	f9 d0       	rcall	.+498    	; 0x2c64 <__fp_pscA>
    2a72:	30 f0       	brcs	.+12     	; 0x2a80 <__divsf3+0x18>
    2a74:	21 f4       	brne	.+8      	; 0x2a7e <__divsf3+0x16>
    2a76:	5f 3f       	cpi	r21, 0xFF	; 255
    2a78:	19 f0       	breq	.+6      	; 0x2a80 <__divsf3+0x18>
    2a7a:	eb c0       	rjmp	.+470    	; 0x2c52 <__fp_inf>
    2a7c:	51 11       	cpse	r21, r1
    2a7e:	34 c1       	rjmp	.+616    	; 0x2ce8 <__fp_szero>
    2a80:	ee c0       	rjmp	.+476    	; 0x2c5e <__fp_nan>

00002a82 <__divsf3x>:
    2a82:	0f d1       	rcall	.+542    	; 0x2ca2 <__fp_split3>
    2a84:	98 f3       	brcs	.-26     	; 0x2a6c <__divsf3+0x4>

00002a86 <__divsf3_pse>:
    2a86:	99 23       	and	r25, r25
    2a88:	c9 f3       	breq	.-14     	; 0x2a7c <__divsf3+0x14>
    2a8a:	55 23       	and	r21, r21
    2a8c:	b1 f3       	breq	.-20     	; 0x2a7a <__divsf3+0x12>
    2a8e:	95 1b       	sub	r25, r21
    2a90:	55 0b       	sbc	r21, r21
    2a92:	bb 27       	eor	r27, r27
    2a94:	aa 27       	eor	r26, r26
    2a96:	62 17       	cp	r22, r18
    2a98:	73 07       	cpc	r23, r19
    2a9a:	84 07       	cpc	r24, r20
    2a9c:	38 f0       	brcs	.+14     	; 0x2aac <__divsf3_pse+0x26>
    2a9e:	9f 5f       	subi	r25, 0xFF	; 255
    2aa0:	5f 4f       	sbci	r21, 0xFF	; 255
    2aa2:	22 0f       	add	r18, r18
    2aa4:	33 1f       	adc	r19, r19
    2aa6:	44 1f       	adc	r20, r20
    2aa8:	aa 1f       	adc	r26, r26
    2aaa:	a9 f3       	breq	.-22     	; 0x2a96 <__divsf3_pse+0x10>
    2aac:	33 d0       	rcall	.+102    	; 0x2b14 <__divsf3_pse+0x8e>
    2aae:	0e 2e       	mov	r0, r30
    2ab0:	3a f0       	brmi	.+14     	; 0x2ac0 <__divsf3_pse+0x3a>
    2ab2:	e0 e8       	ldi	r30, 0x80	; 128
    2ab4:	30 d0       	rcall	.+96     	; 0x2b16 <__divsf3_pse+0x90>
    2ab6:	91 50       	subi	r25, 0x01	; 1
    2ab8:	50 40       	sbci	r21, 0x00	; 0
    2aba:	e6 95       	lsr	r30
    2abc:	00 1c       	adc	r0, r0
    2abe:	ca f7       	brpl	.-14     	; 0x2ab2 <__divsf3_pse+0x2c>
    2ac0:	29 d0       	rcall	.+82     	; 0x2b14 <__divsf3_pse+0x8e>
    2ac2:	fe 2f       	mov	r31, r30
    2ac4:	27 d0       	rcall	.+78     	; 0x2b14 <__divsf3_pse+0x8e>
    2ac6:	66 0f       	add	r22, r22
    2ac8:	77 1f       	adc	r23, r23
    2aca:	88 1f       	adc	r24, r24
    2acc:	bb 1f       	adc	r27, r27
    2ace:	26 17       	cp	r18, r22
    2ad0:	37 07       	cpc	r19, r23
    2ad2:	48 07       	cpc	r20, r24
    2ad4:	ab 07       	cpc	r26, r27
    2ad6:	b0 e8       	ldi	r27, 0x80	; 128
    2ad8:	09 f0       	breq	.+2      	; 0x2adc <__divsf3_pse+0x56>
    2ada:	bb 0b       	sbc	r27, r27
    2adc:	80 2d       	mov	r24, r0
    2ade:	bf 01       	movw	r22, r30
    2ae0:	ff 27       	eor	r31, r31
    2ae2:	93 58       	subi	r25, 0x83	; 131
    2ae4:	5f 4f       	sbci	r21, 0xFF	; 255
    2ae6:	2a f0       	brmi	.+10     	; 0x2af2 <__divsf3_pse+0x6c>
    2ae8:	9e 3f       	cpi	r25, 0xFE	; 254
    2aea:	51 05       	cpc	r21, r1
    2aec:	68 f0       	brcs	.+26     	; 0x2b08 <__divsf3_pse+0x82>
    2aee:	b1 c0       	rjmp	.+354    	; 0x2c52 <__fp_inf>
    2af0:	fb c0       	rjmp	.+502    	; 0x2ce8 <__fp_szero>
    2af2:	5f 3f       	cpi	r21, 0xFF	; 255
    2af4:	ec f3       	brlt	.-6      	; 0x2af0 <__divsf3_pse+0x6a>
    2af6:	98 3e       	cpi	r25, 0xE8	; 232
    2af8:	dc f3       	brlt	.-10     	; 0x2af0 <__divsf3_pse+0x6a>
    2afa:	86 95       	lsr	r24
    2afc:	77 95       	ror	r23
    2afe:	67 95       	ror	r22
    2b00:	b7 95       	ror	r27
    2b02:	f7 95       	ror	r31
    2b04:	9f 5f       	subi	r25, 0xFF	; 255
    2b06:	c9 f7       	brne	.-14     	; 0x2afa <__divsf3_pse+0x74>
    2b08:	88 0f       	add	r24, r24
    2b0a:	91 1d       	adc	r25, r1
    2b0c:	96 95       	lsr	r25
    2b0e:	87 95       	ror	r24
    2b10:	97 f9       	bld	r25, 7
    2b12:	08 95       	ret
    2b14:	e1 e0       	ldi	r30, 0x01	; 1
    2b16:	66 0f       	add	r22, r22
    2b18:	77 1f       	adc	r23, r23
    2b1a:	88 1f       	adc	r24, r24
    2b1c:	bb 1f       	adc	r27, r27
    2b1e:	62 17       	cp	r22, r18
    2b20:	73 07       	cpc	r23, r19
    2b22:	84 07       	cpc	r24, r20
    2b24:	ba 07       	cpc	r27, r26
    2b26:	20 f0       	brcs	.+8      	; 0x2b30 <__divsf3_pse+0xaa>
    2b28:	62 1b       	sub	r22, r18
    2b2a:	73 0b       	sbc	r23, r19
    2b2c:	84 0b       	sbc	r24, r20
    2b2e:	ba 0b       	sbc	r27, r26
    2b30:	ee 1f       	adc	r30, r30
    2b32:	88 f7       	brcc	.-30     	; 0x2b16 <__divsf3_pse+0x90>
    2b34:	e0 95       	com	r30
    2b36:	08 95       	ret

00002b38 <__fixunssfsi>:
    2b38:	bc d0       	rcall	.+376    	; 0x2cb2 <__fp_splitA>
    2b3a:	88 f0       	brcs	.+34     	; 0x2b5e <__fixunssfsi+0x26>
    2b3c:	9f 57       	subi	r25, 0x7F	; 127
    2b3e:	90 f0       	brcs	.+36     	; 0x2b64 <__fixunssfsi+0x2c>
    2b40:	b9 2f       	mov	r27, r25
    2b42:	99 27       	eor	r25, r25
    2b44:	b7 51       	subi	r27, 0x17	; 23
    2b46:	a0 f0       	brcs	.+40     	; 0x2b70 <__fixunssfsi+0x38>
    2b48:	d1 f0       	breq	.+52     	; 0x2b7e <__fixunssfsi+0x46>
    2b4a:	66 0f       	add	r22, r22
    2b4c:	77 1f       	adc	r23, r23
    2b4e:	88 1f       	adc	r24, r24
    2b50:	99 1f       	adc	r25, r25
    2b52:	1a f0       	brmi	.+6      	; 0x2b5a <__fixunssfsi+0x22>
    2b54:	ba 95       	dec	r27
    2b56:	c9 f7       	brne	.-14     	; 0x2b4a <__fixunssfsi+0x12>
    2b58:	12 c0       	rjmp	.+36     	; 0x2b7e <__fixunssfsi+0x46>
    2b5a:	b1 30       	cpi	r27, 0x01	; 1
    2b5c:	81 f0       	breq	.+32     	; 0x2b7e <__fixunssfsi+0x46>
    2b5e:	c3 d0       	rcall	.+390    	; 0x2ce6 <__fp_zero>
    2b60:	b1 e0       	ldi	r27, 0x01	; 1
    2b62:	08 95       	ret
    2b64:	c0 c0       	rjmp	.+384    	; 0x2ce6 <__fp_zero>
    2b66:	67 2f       	mov	r22, r23
    2b68:	78 2f       	mov	r23, r24
    2b6a:	88 27       	eor	r24, r24
    2b6c:	b8 5f       	subi	r27, 0xF8	; 248
    2b6e:	39 f0       	breq	.+14     	; 0x2b7e <__fixunssfsi+0x46>
    2b70:	b9 3f       	cpi	r27, 0xF9	; 249
    2b72:	cc f3       	brlt	.-14     	; 0x2b66 <__fixunssfsi+0x2e>
    2b74:	86 95       	lsr	r24
    2b76:	77 95       	ror	r23
    2b78:	67 95       	ror	r22
    2b7a:	b3 95       	inc	r27
    2b7c:	d9 f7       	brne	.-10     	; 0x2b74 <__fixunssfsi+0x3c>
    2b7e:	3e f4       	brtc	.+14     	; 0x2b8e <__fixunssfsi+0x56>
    2b80:	90 95       	com	r25
    2b82:	80 95       	com	r24
    2b84:	70 95       	com	r23
    2b86:	61 95       	neg	r22
    2b88:	7f 4f       	sbci	r23, 0xFF	; 255
    2b8a:	8f 4f       	sbci	r24, 0xFF	; 255
    2b8c:	9f 4f       	sbci	r25, 0xFF	; 255
    2b8e:	08 95       	ret

00002b90 <__floatunsisf>:
    2b90:	e8 94       	clt
    2b92:	09 c0       	rjmp	.+18     	; 0x2ba6 <__floatsisf+0x12>

00002b94 <__floatsisf>:
    2b94:	97 fb       	bst	r25, 7
    2b96:	3e f4       	brtc	.+14     	; 0x2ba6 <__floatsisf+0x12>
    2b98:	90 95       	com	r25
    2b9a:	80 95       	com	r24
    2b9c:	70 95       	com	r23
    2b9e:	61 95       	neg	r22
    2ba0:	7f 4f       	sbci	r23, 0xFF	; 255
    2ba2:	8f 4f       	sbci	r24, 0xFF	; 255
    2ba4:	9f 4f       	sbci	r25, 0xFF	; 255
    2ba6:	99 23       	and	r25, r25
    2ba8:	a9 f0       	breq	.+42     	; 0x2bd4 <__floatsisf+0x40>
    2baa:	f9 2f       	mov	r31, r25
    2bac:	96 e9       	ldi	r25, 0x96	; 150
    2bae:	bb 27       	eor	r27, r27
    2bb0:	93 95       	inc	r25
    2bb2:	f6 95       	lsr	r31
    2bb4:	87 95       	ror	r24
    2bb6:	77 95       	ror	r23
    2bb8:	67 95       	ror	r22
    2bba:	b7 95       	ror	r27
    2bbc:	f1 11       	cpse	r31, r1
    2bbe:	f8 cf       	rjmp	.-16     	; 0x2bb0 <__floatsisf+0x1c>
    2bc0:	fa f4       	brpl	.+62     	; 0x2c00 <__floatsisf+0x6c>
    2bc2:	bb 0f       	add	r27, r27
    2bc4:	11 f4       	brne	.+4      	; 0x2bca <__floatsisf+0x36>
    2bc6:	60 ff       	sbrs	r22, 0
    2bc8:	1b c0       	rjmp	.+54     	; 0x2c00 <__floatsisf+0x6c>
    2bca:	6f 5f       	subi	r22, 0xFF	; 255
    2bcc:	7f 4f       	sbci	r23, 0xFF	; 255
    2bce:	8f 4f       	sbci	r24, 0xFF	; 255
    2bd0:	9f 4f       	sbci	r25, 0xFF	; 255
    2bd2:	16 c0       	rjmp	.+44     	; 0x2c00 <__floatsisf+0x6c>
    2bd4:	88 23       	and	r24, r24
    2bd6:	11 f0       	breq	.+4      	; 0x2bdc <__floatsisf+0x48>
    2bd8:	96 e9       	ldi	r25, 0x96	; 150
    2bda:	11 c0       	rjmp	.+34     	; 0x2bfe <__floatsisf+0x6a>
    2bdc:	77 23       	and	r23, r23
    2bde:	21 f0       	breq	.+8      	; 0x2be8 <__floatsisf+0x54>
    2be0:	9e e8       	ldi	r25, 0x8E	; 142
    2be2:	87 2f       	mov	r24, r23
    2be4:	76 2f       	mov	r23, r22
    2be6:	05 c0       	rjmp	.+10     	; 0x2bf2 <__floatsisf+0x5e>
    2be8:	66 23       	and	r22, r22
    2bea:	71 f0       	breq	.+28     	; 0x2c08 <__floatsisf+0x74>
    2bec:	96 e8       	ldi	r25, 0x86	; 134
    2bee:	86 2f       	mov	r24, r22
    2bf0:	70 e0       	ldi	r23, 0x00	; 0
    2bf2:	60 e0       	ldi	r22, 0x00	; 0
    2bf4:	2a f0       	brmi	.+10     	; 0x2c00 <__floatsisf+0x6c>
    2bf6:	9a 95       	dec	r25
    2bf8:	66 0f       	add	r22, r22
    2bfa:	77 1f       	adc	r23, r23
    2bfc:	88 1f       	adc	r24, r24
    2bfe:	da f7       	brpl	.-10     	; 0x2bf6 <__floatsisf+0x62>
    2c00:	88 0f       	add	r24, r24
    2c02:	96 95       	lsr	r25
    2c04:	87 95       	ror	r24
    2c06:	97 f9       	bld	r25, 7
    2c08:	08 95       	ret

00002c0a <__fp_cmp>:
    2c0a:	99 0f       	add	r25, r25
    2c0c:	00 08       	sbc	r0, r0
    2c0e:	55 0f       	add	r21, r21
    2c10:	aa 0b       	sbc	r26, r26
    2c12:	e0 e8       	ldi	r30, 0x80	; 128
    2c14:	fe ef       	ldi	r31, 0xFE	; 254
    2c16:	16 16       	cp	r1, r22
    2c18:	17 06       	cpc	r1, r23
    2c1a:	e8 07       	cpc	r30, r24
    2c1c:	f9 07       	cpc	r31, r25
    2c1e:	c0 f0       	brcs	.+48     	; 0x2c50 <__fp_cmp+0x46>
    2c20:	12 16       	cp	r1, r18
    2c22:	13 06       	cpc	r1, r19
    2c24:	e4 07       	cpc	r30, r20
    2c26:	f5 07       	cpc	r31, r21
    2c28:	98 f0       	brcs	.+38     	; 0x2c50 <__fp_cmp+0x46>
    2c2a:	62 1b       	sub	r22, r18
    2c2c:	73 0b       	sbc	r23, r19
    2c2e:	84 0b       	sbc	r24, r20
    2c30:	95 0b       	sbc	r25, r21
    2c32:	39 f4       	brne	.+14     	; 0x2c42 <__fp_cmp+0x38>
    2c34:	0a 26       	eor	r0, r26
    2c36:	61 f0       	breq	.+24     	; 0x2c50 <__fp_cmp+0x46>
    2c38:	23 2b       	or	r18, r19
    2c3a:	24 2b       	or	r18, r20
    2c3c:	25 2b       	or	r18, r21
    2c3e:	21 f4       	brne	.+8      	; 0x2c48 <__fp_cmp+0x3e>
    2c40:	08 95       	ret
    2c42:	0a 26       	eor	r0, r26
    2c44:	09 f4       	brne	.+2      	; 0x2c48 <__fp_cmp+0x3e>
    2c46:	a1 40       	sbci	r26, 0x01	; 1
    2c48:	a6 95       	lsr	r26
    2c4a:	8f ef       	ldi	r24, 0xFF	; 255
    2c4c:	81 1d       	adc	r24, r1
    2c4e:	81 1d       	adc	r24, r1
    2c50:	08 95       	ret

00002c52 <__fp_inf>:
    2c52:	97 f9       	bld	r25, 7
    2c54:	9f 67       	ori	r25, 0x7F	; 127
    2c56:	80 e8       	ldi	r24, 0x80	; 128
    2c58:	70 e0       	ldi	r23, 0x00	; 0
    2c5a:	60 e0       	ldi	r22, 0x00	; 0
    2c5c:	08 95       	ret

00002c5e <__fp_nan>:
    2c5e:	9f ef       	ldi	r25, 0xFF	; 255
    2c60:	80 ec       	ldi	r24, 0xC0	; 192
    2c62:	08 95       	ret

00002c64 <__fp_pscA>:
    2c64:	00 24       	eor	r0, r0
    2c66:	0a 94       	dec	r0
    2c68:	16 16       	cp	r1, r22
    2c6a:	17 06       	cpc	r1, r23
    2c6c:	18 06       	cpc	r1, r24
    2c6e:	09 06       	cpc	r0, r25
    2c70:	08 95       	ret

00002c72 <__fp_pscB>:
    2c72:	00 24       	eor	r0, r0
    2c74:	0a 94       	dec	r0
    2c76:	12 16       	cp	r1, r18
    2c78:	13 06       	cpc	r1, r19
    2c7a:	14 06       	cpc	r1, r20
    2c7c:	05 06       	cpc	r0, r21
    2c7e:	08 95       	ret

00002c80 <__fp_round>:
    2c80:	09 2e       	mov	r0, r25
    2c82:	03 94       	inc	r0
    2c84:	00 0c       	add	r0, r0
    2c86:	11 f4       	brne	.+4      	; 0x2c8c <__fp_round+0xc>
    2c88:	88 23       	and	r24, r24
    2c8a:	52 f0       	brmi	.+20     	; 0x2ca0 <__fp_round+0x20>
    2c8c:	bb 0f       	add	r27, r27
    2c8e:	40 f4       	brcc	.+16     	; 0x2ca0 <__fp_round+0x20>
    2c90:	bf 2b       	or	r27, r31
    2c92:	11 f4       	brne	.+4      	; 0x2c98 <__fp_round+0x18>
    2c94:	60 ff       	sbrs	r22, 0
    2c96:	04 c0       	rjmp	.+8      	; 0x2ca0 <__fp_round+0x20>
    2c98:	6f 5f       	subi	r22, 0xFF	; 255
    2c9a:	7f 4f       	sbci	r23, 0xFF	; 255
    2c9c:	8f 4f       	sbci	r24, 0xFF	; 255
    2c9e:	9f 4f       	sbci	r25, 0xFF	; 255
    2ca0:	08 95       	ret

00002ca2 <__fp_split3>:
    2ca2:	57 fd       	sbrc	r21, 7
    2ca4:	90 58       	subi	r25, 0x80	; 128
    2ca6:	44 0f       	add	r20, r20
    2ca8:	55 1f       	adc	r21, r21
    2caa:	59 f0       	breq	.+22     	; 0x2cc2 <__fp_splitA+0x10>
    2cac:	5f 3f       	cpi	r21, 0xFF	; 255
    2cae:	71 f0       	breq	.+28     	; 0x2ccc <__fp_splitA+0x1a>
    2cb0:	47 95       	ror	r20

00002cb2 <__fp_splitA>:
    2cb2:	88 0f       	add	r24, r24
    2cb4:	97 fb       	bst	r25, 7
    2cb6:	99 1f       	adc	r25, r25
    2cb8:	61 f0       	breq	.+24     	; 0x2cd2 <__fp_splitA+0x20>
    2cba:	9f 3f       	cpi	r25, 0xFF	; 255
    2cbc:	79 f0       	breq	.+30     	; 0x2cdc <__fp_splitA+0x2a>
    2cbe:	87 95       	ror	r24
    2cc0:	08 95       	ret
    2cc2:	12 16       	cp	r1, r18
    2cc4:	13 06       	cpc	r1, r19
    2cc6:	14 06       	cpc	r1, r20
    2cc8:	55 1f       	adc	r21, r21
    2cca:	f2 cf       	rjmp	.-28     	; 0x2cb0 <__fp_split3+0xe>
    2ccc:	46 95       	lsr	r20
    2cce:	f1 df       	rcall	.-30     	; 0x2cb2 <__fp_splitA>
    2cd0:	08 c0       	rjmp	.+16     	; 0x2ce2 <__fp_splitA+0x30>
    2cd2:	16 16       	cp	r1, r22
    2cd4:	17 06       	cpc	r1, r23
    2cd6:	18 06       	cpc	r1, r24
    2cd8:	99 1f       	adc	r25, r25
    2cda:	f1 cf       	rjmp	.-30     	; 0x2cbe <__fp_splitA+0xc>
    2cdc:	86 95       	lsr	r24
    2cde:	71 05       	cpc	r23, r1
    2ce0:	61 05       	cpc	r22, r1
    2ce2:	08 94       	sec
    2ce4:	08 95       	ret

00002ce6 <__fp_zero>:
    2ce6:	e8 94       	clt

00002ce8 <__fp_szero>:
    2ce8:	bb 27       	eor	r27, r27
    2cea:	66 27       	eor	r22, r22
    2cec:	77 27       	eor	r23, r23
    2cee:	cb 01       	movw	r24, r22
    2cf0:	97 f9       	bld	r25, 7
    2cf2:	08 95       	ret

00002cf4 <__gesf2>:
    2cf4:	8a df       	rcall	.-236    	; 0x2c0a <__fp_cmp>
    2cf6:	08 f4       	brcc	.+2      	; 0x2cfa <__gesf2+0x6>
    2cf8:	8f ef       	ldi	r24, 0xFF	; 255
    2cfa:	08 95       	ret

00002cfc <__mulsf3>:
    2cfc:	0b d0       	rcall	.+22     	; 0x2d14 <__mulsf3x>
    2cfe:	c0 cf       	rjmp	.-128    	; 0x2c80 <__fp_round>
    2d00:	b1 df       	rcall	.-158    	; 0x2c64 <__fp_pscA>
    2d02:	28 f0       	brcs	.+10     	; 0x2d0e <__mulsf3+0x12>
    2d04:	b6 df       	rcall	.-148    	; 0x2c72 <__fp_pscB>
    2d06:	18 f0       	brcs	.+6      	; 0x2d0e <__mulsf3+0x12>
    2d08:	95 23       	and	r25, r21
    2d0a:	09 f0       	breq	.+2      	; 0x2d0e <__mulsf3+0x12>
    2d0c:	a2 cf       	rjmp	.-188    	; 0x2c52 <__fp_inf>
    2d0e:	a7 cf       	rjmp	.-178    	; 0x2c5e <__fp_nan>
    2d10:	11 24       	eor	r1, r1
    2d12:	ea cf       	rjmp	.-44     	; 0x2ce8 <__fp_szero>

00002d14 <__mulsf3x>:
    2d14:	c6 df       	rcall	.-116    	; 0x2ca2 <__fp_split3>
    2d16:	a0 f3       	brcs	.-24     	; 0x2d00 <__mulsf3+0x4>

00002d18 <__mulsf3_pse>:
    2d18:	95 9f       	mul	r25, r21
    2d1a:	d1 f3       	breq	.-12     	; 0x2d10 <__mulsf3+0x14>
    2d1c:	95 0f       	add	r25, r21
    2d1e:	50 e0       	ldi	r21, 0x00	; 0
    2d20:	55 1f       	adc	r21, r21
    2d22:	62 9f       	mul	r22, r18
    2d24:	f0 01       	movw	r30, r0
    2d26:	72 9f       	mul	r23, r18
    2d28:	bb 27       	eor	r27, r27
    2d2a:	f0 0d       	add	r31, r0
    2d2c:	b1 1d       	adc	r27, r1
    2d2e:	63 9f       	mul	r22, r19
    2d30:	aa 27       	eor	r26, r26
    2d32:	f0 0d       	add	r31, r0
    2d34:	b1 1d       	adc	r27, r1
    2d36:	aa 1f       	adc	r26, r26
    2d38:	64 9f       	mul	r22, r20
    2d3a:	66 27       	eor	r22, r22
    2d3c:	b0 0d       	add	r27, r0
    2d3e:	a1 1d       	adc	r26, r1
    2d40:	66 1f       	adc	r22, r22
    2d42:	82 9f       	mul	r24, r18
    2d44:	22 27       	eor	r18, r18
    2d46:	b0 0d       	add	r27, r0
    2d48:	a1 1d       	adc	r26, r1
    2d4a:	62 1f       	adc	r22, r18
    2d4c:	73 9f       	mul	r23, r19
    2d4e:	b0 0d       	add	r27, r0
    2d50:	a1 1d       	adc	r26, r1
    2d52:	62 1f       	adc	r22, r18
    2d54:	83 9f       	mul	r24, r19
    2d56:	a0 0d       	add	r26, r0
    2d58:	61 1d       	adc	r22, r1
    2d5a:	22 1f       	adc	r18, r18
    2d5c:	74 9f       	mul	r23, r20
    2d5e:	33 27       	eor	r19, r19
    2d60:	a0 0d       	add	r26, r0
    2d62:	61 1d       	adc	r22, r1
    2d64:	23 1f       	adc	r18, r19
    2d66:	84 9f       	mul	r24, r20
    2d68:	60 0d       	add	r22, r0
    2d6a:	21 1d       	adc	r18, r1
    2d6c:	82 2f       	mov	r24, r18
    2d6e:	76 2f       	mov	r23, r22
    2d70:	6a 2f       	mov	r22, r26
    2d72:	11 24       	eor	r1, r1
    2d74:	9f 57       	subi	r25, 0x7F	; 127
    2d76:	50 40       	sbci	r21, 0x00	; 0
    2d78:	8a f0       	brmi	.+34     	; 0x2d9c <__mulsf3_pse+0x84>
    2d7a:	e1 f0       	breq	.+56     	; 0x2db4 <__mulsf3_pse+0x9c>
    2d7c:	88 23       	and	r24, r24
    2d7e:	4a f0       	brmi	.+18     	; 0x2d92 <__mulsf3_pse+0x7a>
    2d80:	ee 0f       	add	r30, r30
    2d82:	ff 1f       	adc	r31, r31
    2d84:	bb 1f       	adc	r27, r27
    2d86:	66 1f       	adc	r22, r22
    2d88:	77 1f       	adc	r23, r23
    2d8a:	88 1f       	adc	r24, r24
    2d8c:	91 50       	subi	r25, 0x01	; 1
    2d8e:	50 40       	sbci	r21, 0x00	; 0
    2d90:	a9 f7       	brne	.-22     	; 0x2d7c <__mulsf3_pse+0x64>
    2d92:	9e 3f       	cpi	r25, 0xFE	; 254
    2d94:	51 05       	cpc	r21, r1
    2d96:	70 f0       	brcs	.+28     	; 0x2db4 <__mulsf3_pse+0x9c>
    2d98:	5c cf       	rjmp	.-328    	; 0x2c52 <__fp_inf>
    2d9a:	a6 cf       	rjmp	.-180    	; 0x2ce8 <__fp_szero>
    2d9c:	5f 3f       	cpi	r21, 0xFF	; 255
    2d9e:	ec f3       	brlt	.-6      	; 0x2d9a <__mulsf3_pse+0x82>
    2da0:	98 3e       	cpi	r25, 0xE8	; 232
    2da2:	dc f3       	brlt	.-10     	; 0x2d9a <__mulsf3_pse+0x82>
    2da4:	86 95       	lsr	r24
    2da6:	77 95       	ror	r23
    2da8:	67 95       	ror	r22
    2daa:	b7 95       	ror	r27
    2dac:	f7 95       	ror	r31
    2dae:	e7 95       	ror	r30
    2db0:	9f 5f       	subi	r25, 0xFF	; 255
    2db2:	c1 f7       	brne	.-16     	; 0x2da4 <__mulsf3_pse+0x8c>
    2db4:	fe 2b       	or	r31, r30
    2db6:	88 0f       	add	r24, r24
    2db8:	91 1d       	adc	r25, r1
    2dba:	96 95       	lsr	r25
    2dbc:	87 95       	ror	r24
    2dbe:	97 f9       	bld	r25, 7
    2dc0:	08 95       	ret
    2dc2:	11 f4       	brne	.+4      	; 0x2dc8 <__mulsf3_pse+0xb0>
    2dc4:	0e f4       	brtc	.+2      	; 0x2dc8 <__mulsf3_pse+0xb0>
    2dc6:	4b cf       	rjmp	.-362    	; 0x2c5e <__fp_nan>
    2dc8:	3e c0       	rjmp	.+124    	; 0x2e46 <__fp_mpack>

00002dca <sqrt>:
    2dca:	73 df       	rcall	.-282    	; 0x2cb2 <__fp_splitA>
    2dcc:	d0 f3       	brcs	.-12     	; 0x2dc2 <__mulsf3_pse+0xaa>
    2dce:	99 23       	and	r25, r25
    2dd0:	d9 f3       	breq	.-10     	; 0x2dc8 <__mulsf3_pse+0xb0>
    2dd2:	ce f3       	brts	.-14     	; 0x2dc6 <__mulsf3_pse+0xae>
    2dd4:	9f 57       	subi	r25, 0x7F	; 127
    2dd6:	55 0b       	sbc	r21, r21
    2dd8:	87 ff       	sbrs	r24, 7
    2dda:	43 d0       	rcall	.+134    	; 0x2e62 <__fp_norm2>
    2ddc:	00 24       	eor	r0, r0
    2dde:	a0 e6       	ldi	r26, 0x60	; 96
    2de0:	40 ea       	ldi	r20, 0xA0	; 160
    2de2:	90 01       	movw	r18, r0
    2de4:	80 58       	subi	r24, 0x80	; 128
    2de6:	56 95       	lsr	r21
    2de8:	97 95       	ror	r25
    2dea:	28 f4       	brcc	.+10     	; 0x2df6 <sqrt+0x2c>
    2dec:	80 5c       	subi	r24, 0xC0	; 192
    2dee:	66 0f       	add	r22, r22
    2df0:	77 1f       	adc	r23, r23
    2df2:	88 1f       	adc	r24, r24
    2df4:	20 f0       	brcs	.+8      	; 0x2dfe <sqrt+0x34>
    2df6:	26 17       	cp	r18, r22
    2df8:	37 07       	cpc	r19, r23
    2dfa:	48 07       	cpc	r20, r24
    2dfc:	30 f4       	brcc	.+12     	; 0x2e0a <sqrt+0x40>
    2dfe:	62 1b       	sub	r22, r18
    2e00:	73 0b       	sbc	r23, r19
    2e02:	84 0b       	sbc	r24, r20
    2e04:	20 29       	or	r18, r0
    2e06:	31 29       	or	r19, r1
    2e08:	4a 2b       	or	r20, r26
    2e0a:	a6 95       	lsr	r26
    2e0c:	17 94       	ror	r1
    2e0e:	07 94       	ror	r0
    2e10:	20 25       	eor	r18, r0
    2e12:	31 25       	eor	r19, r1
    2e14:	4a 27       	eor	r20, r26
    2e16:	58 f7       	brcc	.-42     	; 0x2dee <sqrt+0x24>
    2e18:	66 0f       	add	r22, r22
    2e1a:	77 1f       	adc	r23, r23
    2e1c:	88 1f       	adc	r24, r24
    2e1e:	20 f0       	brcs	.+8      	; 0x2e28 <sqrt+0x5e>
    2e20:	26 17       	cp	r18, r22
    2e22:	37 07       	cpc	r19, r23
    2e24:	48 07       	cpc	r20, r24
    2e26:	30 f4       	brcc	.+12     	; 0x2e34 <sqrt+0x6a>
    2e28:	62 0b       	sbc	r22, r18
    2e2a:	73 0b       	sbc	r23, r19
    2e2c:	84 0b       	sbc	r24, r20
    2e2e:	20 0d       	add	r18, r0
    2e30:	31 1d       	adc	r19, r1
    2e32:	41 1d       	adc	r20, r1
    2e34:	a0 95       	com	r26
    2e36:	81 f7       	brne	.-32     	; 0x2e18 <sqrt+0x4e>
    2e38:	b9 01       	movw	r22, r18
    2e3a:	84 2f       	mov	r24, r20
    2e3c:	91 58       	subi	r25, 0x81	; 129
    2e3e:	88 0f       	add	r24, r24
    2e40:	96 95       	lsr	r25
    2e42:	87 95       	ror	r24
    2e44:	08 95       	ret

00002e46 <__fp_mpack>:
    2e46:	9f 3f       	cpi	r25, 0xFF	; 255
    2e48:	31 f0       	breq	.+12     	; 0x2e56 <__fp_mpack_finite+0xc>

00002e4a <__fp_mpack_finite>:
    2e4a:	91 50       	subi	r25, 0x01	; 1
    2e4c:	20 f4       	brcc	.+8      	; 0x2e56 <__fp_mpack_finite+0xc>
    2e4e:	87 95       	ror	r24
    2e50:	77 95       	ror	r23
    2e52:	67 95       	ror	r22
    2e54:	b7 95       	ror	r27
    2e56:	88 0f       	add	r24, r24
    2e58:	91 1d       	adc	r25, r1
    2e5a:	96 95       	lsr	r25
    2e5c:	87 95       	ror	r24
    2e5e:	97 f9       	bld	r25, 7
    2e60:	08 95       	ret

00002e62 <__fp_norm2>:
    2e62:	91 50       	subi	r25, 0x01	; 1
    2e64:	50 40       	sbci	r21, 0x00	; 0
    2e66:	66 0f       	add	r22, r22
    2e68:	77 1f       	adc	r23, r23
    2e6a:	88 1f       	adc	r24, r24
    2e6c:	d2 f7       	brpl	.-12     	; 0x2e62 <__fp_norm2>
    2e6e:	08 95       	ret

00002e70 <dtostrf>:
    2e70:	ef 92       	push	r14
    2e72:	0f 93       	push	r16
    2e74:	1f 93       	push	r17
    2e76:	cf 93       	push	r28
    2e78:	df 93       	push	r29
    2e7a:	e8 01       	movw	r28, r16
    2e7c:	47 ff       	sbrs	r20, 7
    2e7e:	02 c0       	rjmp	.+4      	; 0x2e84 <dtostrf+0x14>
    2e80:	34 e1       	ldi	r19, 0x14	; 20
    2e82:	01 c0       	rjmp	.+2      	; 0x2e86 <dtostrf+0x16>
    2e84:	34 e0       	ldi	r19, 0x04	; 4
    2e86:	e4 2f       	mov	r30, r20
    2e88:	ff 27       	eor	r31, r31
    2e8a:	e7 fd       	sbrc	r30, 7
    2e8c:	f0 95       	com	r31
    2e8e:	f7 ff       	sbrs	r31, 7
    2e90:	03 c0       	rjmp	.+6      	; 0x2e98 <dtostrf+0x28>
    2e92:	f1 95       	neg	r31
    2e94:	e1 95       	neg	r30
    2e96:	f1 09       	sbc	r31, r1
    2e98:	e3 2e       	mov	r14, r19
    2e9a:	02 2f       	mov	r16, r18
    2e9c:	2e 2f       	mov	r18, r30
    2e9e:	ae 01       	movw	r20, r28
    2ea0:	0e 94 2c 18 	call	0x3058	; 0x3058 <dtoa_prf>
    2ea4:	ce 01       	movw	r24, r28
    2ea6:	df 91       	pop	r29
    2ea8:	cf 91       	pop	r28
    2eaa:	1f 91       	pop	r17
    2eac:	0f 91       	pop	r16
    2eae:	ef 90       	pop	r14
    2eb0:	08 95       	ret

00002eb2 <atof>:
    2eb2:	66 27       	eor	r22, r22
    2eb4:	77 27       	eor	r23, r23
    2eb6:	0c 94 aa 19 	jmp	0x3354	; 0x3354 <strtod>

00002eba <atoi>:
    2eba:	fc 01       	movw	r30, r24
    2ebc:	88 27       	eor	r24, r24
    2ebe:	99 27       	eor	r25, r25
    2ec0:	e8 94       	clt
    2ec2:	21 91       	ld	r18, Z+
    2ec4:	20 32       	cpi	r18, 0x20	; 32
    2ec6:	e9 f3       	breq	.-6      	; 0x2ec2 <atoi+0x8>
    2ec8:	29 30       	cpi	r18, 0x09	; 9
    2eca:	10 f0       	brcs	.+4      	; 0x2ed0 <atoi+0x16>
    2ecc:	2e 30       	cpi	r18, 0x0E	; 14
    2ece:	c8 f3       	brcs	.-14     	; 0x2ec2 <atoi+0x8>
    2ed0:	2b 32       	cpi	r18, 0x2B	; 43
    2ed2:	41 f0       	breq	.+16     	; 0x2ee4 <atoi+0x2a>
    2ed4:	2d 32       	cpi	r18, 0x2D	; 45
    2ed6:	39 f4       	brne	.+14     	; 0x2ee6 <atoi+0x2c>
    2ed8:	68 94       	set
    2eda:	04 c0       	rjmp	.+8      	; 0x2ee4 <atoi+0x2a>
    2edc:	0e 94 b0 17 	call	0x2f60	; 0x2f60 <__mulhi_const_10>
    2ee0:	82 0f       	add	r24, r18
    2ee2:	91 1d       	adc	r25, r1
    2ee4:	21 91       	ld	r18, Z+
    2ee6:	20 53       	subi	r18, 0x30	; 48
    2ee8:	2a 30       	cpi	r18, 0x0A	; 10
    2eea:	c0 f3       	brcs	.-16     	; 0x2edc <atoi+0x22>
    2eec:	1e f4       	brtc	.+6      	; 0x2ef4 <atoi+0x3a>
    2eee:	90 95       	com	r25
    2ef0:	81 95       	neg	r24
    2ef2:	9f 4f       	sbci	r25, 0xFF	; 255
    2ef4:	08 95       	ret

00002ef6 <strcat>:
    2ef6:	fb 01       	movw	r30, r22
    2ef8:	dc 01       	movw	r26, r24
    2efa:	0d 90       	ld	r0, X+
    2efc:	00 20       	and	r0, r0
    2efe:	e9 f7       	brne	.-6      	; 0x2efa <strcat+0x4>
    2f00:	11 97       	sbiw	r26, 0x01	; 1
    2f02:	01 90       	ld	r0, Z+
    2f04:	0d 92       	st	X+, r0
    2f06:	00 20       	and	r0, r0
    2f08:	e1 f7       	brne	.-8      	; 0x2f02 <strcat+0xc>
    2f0a:	08 95       	ret

00002f0c <strcmp>:
    2f0c:	fb 01       	movw	r30, r22
    2f0e:	dc 01       	movw	r26, r24
    2f10:	8d 91       	ld	r24, X+
    2f12:	01 90       	ld	r0, Z+
    2f14:	80 19       	sub	r24, r0
    2f16:	01 10       	cpse	r0, r1
    2f18:	d9 f3       	breq	.-10     	; 0x2f10 <strcmp+0x4>
    2f1a:	99 0b       	sbc	r25, r25
    2f1c:	08 95       	ret

00002f1e <strcpy>:
    2f1e:	fb 01       	movw	r30, r22
    2f20:	dc 01       	movw	r26, r24
    2f22:	01 90       	ld	r0, Z+
    2f24:	0d 92       	st	X+, r0
    2f26:	00 20       	and	r0, r0
    2f28:	e1 f7       	brne	.-8      	; 0x2f22 <strcpy+0x4>
    2f2a:	08 95       	ret

00002f2c <__itoa_ncheck>:
    2f2c:	bb 27       	eor	r27, r27
    2f2e:	4a 30       	cpi	r20, 0x0A	; 10
    2f30:	31 f4       	brne	.+12     	; 0x2f3e <__itoa_ncheck+0x12>
    2f32:	99 23       	and	r25, r25
    2f34:	22 f4       	brpl	.+8      	; 0x2f3e <__itoa_ncheck+0x12>
    2f36:	bd e2       	ldi	r27, 0x2D	; 45
    2f38:	90 95       	com	r25
    2f3a:	81 95       	neg	r24
    2f3c:	9f 4f       	sbci	r25, 0xFF	; 255
    2f3e:	0c 94 db 17 	jmp	0x2fb6	; 0x2fb6 <__utoa_common>

00002f42 <__ltoa_ncheck>:
    2f42:	bb 27       	eor	r27, r27
    2f44:	2a 30       	cpi	r18, 0x0A	; 10
    2f46:	51 f4       	brne	.+20     	; 0x2f5c <__ltoa_ncheck+0x1a>
    2f48:	99 23       	and	r25, r25
    2f4a:	42 f4       	brpl	.+16     	; 0x2f5c <__ltoa_ncheck+0x1a>
    2f4c:	bd e2       	ldi	r27, 0x2D	; 45
    2f4e:	90 95       	com	r25
    2f50:	80 95       	com	r24
    2f52:	70 95       	com	r23
    2f54:	61 95       	neg	r22
    2f56:	7f 4f       	sbci	r23, 0xFF	; 255
    2f58:	8f 4f       	sbci	r24, 0xFF	; 255
    2f5a:	9f 4f       	sbci	r25, 0xFF	; 255
    2f5c:	0c 94 b9 17 	jmp	0x2f72	; 0x2f72 <__ultoa_common>

00002f60 <__mulhi_const_10>:
    2f60:	7a e0       	ldi	r23, 0x0A	; 10
    2f62:	97 9f       	mul	r25, r23
    2f64:	90 2d       	mov	r25, r0
    2f66:	87 9f       	mul	r24, r23
    2f68:	80 2d       	mov	r24, r0
    2f6a:	91 0d       	add	r25, r1
    2f6c:	11 24       	eor	r1, r1
    2f6e:	08 95       	ret

00002f70 <__ultoa_ncheck>:
    2f70:	bb 27       	eor	r27, r27

00002f72 <__ultoa_common>:
    2f72:	fa 01       	movw	r30, r20
    2f74:	a6 2f       	mov	r26, r22
    2f76:	62 17       	cp	r22, r18
    2f78:	71 05       	cpc	r23, r1
    2f7a:	81 05       	cpc	r24, r1
    2f7c:	91 05       	cpc	r25, r1
    2f7e:	33 0b       	sbc	r19, r19
    2f80:	30 fb       	bst	r19, 0
    2f82:	66 f0       	brts	.+24     	; 0x2f9c <__ultoa_common+0x2a>
    2f84:	aa 27       	eor	r26, r26
    2f86:	66 0f       	add	r22, r22
    2f88:	77 1f       	adc	r23, r23
    2f8a:	88 1f       	adc	r24, r24
    2f8c:	99 1f       	adc	r25, r25
    2f8e:	aa 1f       	adc	r26, r26
    2f90:	a2 17       	cp	r26, r18
    2f92:	10 f0       	brcs	.+4      	; 0x2f98 <__ultoa_common+0x26>
    2f94:	a2 1b       	sub	r26, r18
    2f96:	63 95       	inc	r22
    2f98:	38 50       	subi	r19, 0x08	; 8
    2f9a:	a9 f7       	brne	.-22     	; 0x2f86 <__ultoa_common+0x14>
    2f9c:	a0 5d       	subi	r26, 0xD0	; 208
    2f9e:	aa 33       	cpi	r26, 0x3A	; 58
    2fa0:	08 f0       	brcs	.+2      	; 0x2fa4 <__ultoa_common+0x32>
    2fa2:	a9 5d       	subi	r26, 0xD9	; 217
    2fa4:	a1 93       	st	Z+, r26
    2fa6:	36 f7       	brtc	.-52     	; 0x2f74 <__ultoa_common+0x2>
    2fa8:	b1 11       	cpse	r27, r1
    2faa:	b1 93       	st	Z+, r27
    2fac:	10 82       	st	Z, r1
    2fae:	ca 01       	movw	r24, r20
    2fb0:	0c 94 13 1c 	jmp	0x3826	; 0x3826 <strrev>

00002fb4 <__utoa_ncheck>:
    2fb4:	bb 27       	eor	r27, r27

00002fb6 <__utoa_common>:
    2fb6:	fb 01       	movw	r30, r22
    2fb8:	55 27       	eor	r21, r21
    2fba:	aa 27       	eor	r26, r26
    2fbc:	88 0f       	add	r24, r24
    2fbe:	99 1f       	adc	r25, r25
    2fc0:	aa 1f       	adc	r26, r26
    2fc2:	a4 17       	cp	r26, r20
    2fc4:	10 f0       	brcs	.+4      	; 0x2fca <__utoa_common+0x14>
    2fc6:	a4 1b       	sub	r26, r20
    2fc8:	83 95       	inc	r24
    2fca:	50 51       	subi	r21, 0x10	; 16
    2fcc:	b9 f7       	brne	.-18     	; 0x2fbc <__utoa_common+0x6>
    2fce:	a0 5d       	subi	r26, 0xD0	; 208
    2fd0:	aa 33       	cpi	r26, 0x3A	; 58
    2fd2:	08 f0       	brcs	.+2      	; 0x2fd6 <__utoa_common+0x20>
    2fd4:	a9 5d       	subi	r26, 0xD9	; 217
    2fd6:	a1 93       	st	Z+, r26
    2fd8:	00 97       	sbiw	r24, 0x00	; 0
    2fda:	79 f7       	brne	.-34     	; 0x2fba <__utoa_common+0x4>
    2fdc:	b1 11       	cpse	r27, r1
    2fde:	b1 93       	st	Z+, r27
    2fe0:	11 92       	st	Z+, r1
    2fe2:	cb 01       	movw	r24, r22
    2fe4:	0c 94 13 1c 	jmp	0x3826	; 0x3826 <strrev>

00002fe8 <__eerd_byte_m2560>:
    2fe8:	f9 99       	sbic	0x1f, 1	; 31
    2fea:	fe cf       	rjmp	.-4      	; 0x2fe8 <__eerd_byte_m2560>
    2fec:	92 bd       	out	0x22, r25	; 34
    2fee:	81 bd       	out	0x21, r24	; 33
    2ff0:	f8 9a       	sbi	0x1f, 0	; 31
    2ff2:	99 27       	eor	r25, r25
    2ff4:	80 b5       	in	r24, 0x20	; 32
    2ff6:	08 95       	ret

00002ff8 <__eerd_dword_m2560>:
    2ff8:	a6 e1       	ldi	r26, 0x16	; 22
    2ffa:	b0 e0       	ldi	r27, 0x00	; 0
    2ffc:	44 e0       	ldi	r20, 0x04	; 4
    2ffe:	50 e0       	ldi	r21, 0x00	; 0
    3000:	0c 94 25 1c 	jmp	0x384a	; 0x384a <__eerd_blraw_m2560>

00003004 <__eerd_word_m2560>:
    3004:	a8 e1       	ldi	r26, 0x18	; 24
    3006:	b0 e0       	ldi	r27, 0x00	; 0
    3008:	42 e0       	ldi	r20, 0x02	; 2
    300a:	50 e0       	ldi	r21, 0x00	; 0
    300c:	0c 94 25 1c 	jmp	0x384a	; 0x384a <__eerd_blraw_m2560>

00003010 <__eeupd_byte_m2560>:
    3010:	26 2f       	mov	r18, r22

00003012 <__eeupd_r18_m2560>:
    3012:	f9 99       	sbic	0x1f, 1	; 31
    3014:	fe cf       	rjmp	.-4      	; 0x3012 <__eeupd_r18_m2560>
    3016:	92 bd       	out	0x22, r25	; 34
    3018:	81 bd       	out	0x21, r24	; 33
    301a:	f8 9a       	sbi	0x1f, 0	; 31
    301c:	01 97       	sbiw	r24, 0x01	; 1
    301e:	00 b4       	in	r0, 0x20	; 32
    3020:	02 16       	cp	r0, r18
    3022:	39 f0       	breq	.+14     	; 0x3032 <__eeupd_r18_m2560+0x20>
    3024:	1f ba       	out	0x1f, r1	; 31
    3026:	20 bd       	out	0x20, r18	; 32
    3028:	0f b6       	in	r0, 0x3f	; 63
    302a:	f8 94       	cli
    302c:	fa 9a       	sbi	0x1f, 2	; 31
    302e:	f9 9a       	sbi	0x1f, 1	; 31
    3030:	0f be       	out	0x3f, r0	; 63
    3032:	08 95       	ret

00003034 <__eeupd_dword_m2560>:
    3034:	03 96       	adiw	r24, 0x03	; 3
    3036:	27 2f       	mov	r18, r23
    3038:	0e 94 09 18 	call	0x3012	; 0x3012 <__eeupd_r18_m2560>
    303c:	0e 94 08 18 	call	0x3010	; 0x3010 <__eeupd_byte_m2560>
    3040:	25 2f       	mov	r18, r21
    3042:	0e 94 09 18 	call	0x3012	; 0x3012 <__eeupd_r18_m2560>
    3046:	24 2f       	mov	r18, r20
    3048:	0c 94 09 18 	jmp	0x3012	; 0x3012 <__eeupd_r18_m2560>

0000304c <__eeupd_word_m2560>:
    304c:	01 96       	adiw	r24, 0x01	; 1
    304e:	27 2f       	mov	r18, r23
    3050:	0e 94 09 18 	call	0x3012	; 0x3012 <__eeupd_r18_m2560>
    3054:	0c 94 08 18 	jmp	0x3010	; 0x3010 <__eeupd_byte_m2560>

00003058 <dtoa_prf>:
    3058:	6f 92       	push	r6
    305a:	7f 92       	push	r7
    305c:	9f 92       	push	r9
    305e:	af 92       	push	r10
    3060:	bf 92       	push	r11
    3062:	cf 92       	push	r12
    3064:	df 92       	push	r13
    3066:	ef 92       	push	r14
    3068:	ff 92       	push	r15
    306a:	0f 93       	push	r16
    306c:	1f 93       	push	r17
    306e:	cf 93       	push	r28
    3070:	df 93       	push	r29
    3072:	cd b7       	in	r28, 0x3d	; 61
    3074:	de b7       	in	r29, 0x3e	; 62
    3076:	29 97       	sbiw	r28, 0x09	; 9
    3078:	0f b6       	in	r0, 0x3f	; 63
    307a:	f8 94       	cli
    307c:	de bf       	out	0x3e, r29	; 62
    307e:	0f be       	out	0x3f, r0	; 63
    3080:	cd bf       	out	0x3d, r28	; 61
    3082:	6a 01       	movw	r12, r20
    3084:	b2 2e       	mov	r11, r18
    3086:	10 2f       	mov	r17, r16
    3088:	0c 33       	cpi	r16, 0x3C	; 60
    308a:	20 f4       	brcc	.+8      	; 0x3094 <dtoa_prf+0x3c>
    308c:	ff 24       	eor	r15, r15
    308e:	f3 94       	inc	r15
    3090:	f0 0e       	add	r15, r16
    3092:	02 c0       	rjmp	.+4      	; 0x3098 <dtoa_prf+0x40>
    3094:	4c e3       	ldi	r20, 0x3C	; 60
    3096:	f4 2e       	mov	r15, r20
    3098:	0f 2d       	mov	r16, r15
    309a:	27 e0       	ldi	r18, 0x07	; 7
    309c:	ae 01       	movw	r20, r28
    309e:	4f 5f       	subi	r20, 0xFF	; 255
    30a0:	5f 4f       	sbci	r21, 0xFF	; 255
    30a2:	0e 94 1b 1b 	call	0x3636	; 0x3636 <__ftoa_engine>
    30a6:	79 81       	ldd	r23, Y+1	; 0x01
    30a8:	27 2f       	mov	r18, r23
    30aa:	29 70       	andi	r18, 0x09	; 9
    30ac:	21 30       	cpi	r18, 0x01	; 1
    30ae:	31 f0       	breq	.+12     	; 0x30bc <dtoa_prf+0x64>
    30b0:	e1 fc       	sbrc	r14, 1
    30b2:	06 c0       	rjmp	.+12     	; 0x30c0 <dtoa_prf+0x68>
    30b4:	e0 fc       	sbrc	r14, 0
    30b6:	06 c0       	rjmp	.+12     	; 0x30c4 <dtoa_prf+0x6c>
    30b8:	60 e0       	ldi	r22, 0x00	; 0
    30ba:	05 c0       	rjmp	.+10     	; 0x30c6 <dtoa_prf+0x6e>
    30bc:	6d e2       	ldi	r22, 0x2D	; 45
    30be:	03 c0       	rjmp	.+6      	; 0x30c6 <dtoa_prf+0x6e>
    30c0:	6b e2       	ldi	r22, 0x2B	; 43
    30c2:	01 c0       	rjmp	.+2      	; 0x30c6 <dtoa_prf+0x6e>
    30c4:	60 e2       	ldi	r22, 0x20	; 32
    30c6:	ae 2d       	mov	r26, r14
    30c8:	a0 71       	andi	r26, 0x10	; 16
    30ca:	73 ff       	sbrs	r23, 3
    30cc:	36 c0       	rjmp	.+108    	; 0x313a <dtoa_prf+0xe2>
    30ce:	66 23       	and	r22, r22
    30d0:	11 f0       	breq	.+4      	; 0x30d6 <dtoa_prf+0x7e>
    30d2:	84 e0       	ldi	r24, 0x04	; 4
    30d4:	01 c0       	rjmp	.+2      	; 0x30d8 <dtoa_prf+0x80>
    30d6:	83 e0       	ldi	r24, 0x03	; 3
    30d8:	8b 15       	cp	r24, r11
    30da:	10 f4       	brcc	.+4      	; 0x30e0 <dtoa_prf+0x88>
    30dc:	b8 1a       	sub	r11, r24
    30de:	01 c0       	rjmp	.+2      	; 0x30e2 <dtoa_prf+0x8a>
    30e0:	b1 2c       	mov	r11, r1
    30e2:	a1 11       	cpse	r26, r1
    30e4:	0b c0       	rjmp	.+22     	; 0x30fc <dtoa_prf+0xa4>
    30e6:	f6 01       	movw	r30, r12
    30e8:	8b 2d       	mov	r24, r11
    30ea:	90 e2       	ldi	r25, 0x20	; 32
    30ec:	88 23       	and	r24, r24
    30ee:	19 f0       	breq	.+6      	; 0x30f6 <dtoa_prf+0x9e>
    30f0:	91 93       	st	Z+, r25
    30f2:	81 50       	subi	r24, 0x01	; 1
    30f4:	fb cf       	rjmp	.-10     	; 0x30ec <dtoa_prf+0x94>
    30f6:	cb 0c       	add	r12, r11
    30f8:	d1 1c       	adc	r13, r1
    30fa:	b1 2c       	mov	r11, r1
    30fc:	66 23       	and	r22, r22
    30fe:	31 f0       	breq	.+12     	; 0x310c <dtoa_prf+0xb4>
    3100:	f6 01       	movw	r30, r12
    3102:	60 83       	st	Z, r22
    3104:	96 01       	movw	r18, r12
    3106:	2f 5f       	subi	r18, 0xFF	; 255
    3108:	3f 4f       	sbci	r19, 0xFF	; 255
    310a:	69 01       	movw	r12, r18
    310c:	c6 01       	movw	r24, r12
    310e:	03 96       	adiw	r24, 0x03	; 3
    3110:	e2 fe       	sbrs	r14, 2
    3112:	05 c0       	rjmp	.+10     	; 0x311e <dtoa_prf+0xc6>
    3114:	2e e4       	ldi	r18, 0x4E	; 78
    3116:	f6 01       	movw	r30, r12
    3118:	20 83       	st	Z, r18
    311a:	31 e4       	ldi	r19, 0x41	; 65
    311c:	04 c0       	rjmp	.+8      	; 0x3126 <dtoa_prf+0xce>
    311e:	2e e6       	ldi	r18, 0x6E	; 110
    3120:	f6 01       	movw	r30, r12
    3122:	20 83       	st	Z, r18
    3124:	31 e6       	ldi	r19, 0x61	; 97
    3126:	31 83       	std	Z+1, r19	; 0x01
    3128:	22 83       	std	Z+2, r18	; 0x02
    312a:	fc 01       	movw	r30, r24
    312c:	2b 2d       	mov	r18, r11
    312e:	30 e2       	ldi	r19, 0x20	; 32
    3130:	22 23       	and	r18, r18
    3132:	f1 f1       	breq	.+124    	; 0x31b0 <dtoa_prf+0x158>
    3134:	31 93       	st	Z+, r19
    3136:	21 50       	subi	r18, 0x01	; 1
    3138:	fb cf       	rjmp	.-10     	; 0x3130 <dtoa_prf+0xd8>
    313a:	72 ff       	sbrs	r23, 2
    313c:	40 c0       	rjmp	.+128    	; 0x31be <dtoa_prf+0x166>
    313e:	66 23       	and	r22, r22
    3140:	11 f0       	breq	.+4      	; 0x3146 <dtoa_prf+0xee>
    3142:	84 e0       	ldi	r24, 0x04	; 4
    3144:	01 c0       	rjmp	.+2      	; 0x3148 <dtoa_prf+0xf0>
    3146:	83 e0       	ldi	r24, 0x03	; 3
    3148:	8b 15       	cp	r24, r11
    314a:	10 f4       	brcc	.+4      	; 0x3150 <dtoa_prf+0xf8>
    314c:	b8 1a       	sub	r11, r24
    314e:	01 c0       	rjmp	.+2      	; 0x3152 <dtoa_prf+0xfa>
    3150:	b1 2c       	mov	r11, r1
    3152:	a1 11       	cpse	r26, r1
    3154:	0b c0       	rjmp	.+22     	; 0x316c <dtoa_prf+0x114>
    3156:	f6 01       	movw	r30, r12
    3158:	8b 2d       	mov	r24, r11
    315a:	90 e2       	ldi	r25, 0x20	; 32
    315c:	88 23       	and	r24, r24
    315e:	19 f0       	breq	.+6      	; 0x3166 <dtoa_prf+0x10e>
    3160:	91 93       	st	Z+, r25
    3162:	81 50       	subi	r24, 0x01	; 1
    3164:	fb cf       	rjmp	.-10     	; 0x315c <dtoa_prf+0x104>
    3166:	cb 0c       	add	r12, r11
    3168:	d1 1c       	adc	r13, r1
    316a:	b1 2c       	mov	r11, r1
    316c:	66 23       	and	r22, r22
    316e:	31 f0       	breq	.+12     	; 0x317c <dtoa_prf+0x124>
    3170:	f6 01       	movw	r30, r12
    3172:	60 83       	st	Z, r22
    3174:	96 01       	movw	r18, r12
    3176:	2f 5f       	subi	r18, 0xFF	; 255
    3178:	3f 4f       	sbci	r19, 0xFF	; 255
    317a:	69 01       	movw	r12, r18
    317c:	c6 01       	movw	r24, r12
    317e:	03 96       	adiw	r24, 0x03	; 3
    3180:	e2 fe       	sbrs	r14, 2
    3182:	07 c0       	rjmp	.+14     	; 0x3192 <dtoa_prf+0x13a>
    3184:	29 e4       	ldi	r18, 0x49	; 73
    3186:	f6 01       	movw	r30, r12
    3188:	20 83       	st	Z, r18
    318a:	2e e4       	ldi	r18, 0x4E	; 78
    318c:	21 83       	std	Z+1, r18	; 0x01
    318e:	26 e4       	ldi	r18, 0x46	; 70
    3190:	06 c0       	rjmp	.+12     	; 0x319e <dtoa_prf+0x146>
    3192:	29 e6       	ldi	r18, 0x69	; 105
    3194:	f6 01       	movw	r30, r12
    3196:	20 83       	st	Z, r18
    3198:	2e e6       	ldi	r18, 0x6E	; 110
    319a:	21 83       	std	Z+1, r18	; 0x01
    319c:	26 e6       	ldi	r18, 0x66	; 102
    319e:	22 83       	std	Z+2, r18	; 0x02
    31a0:	fc 01       	movw	r30, r24
    31a2:	2b 2d       	mov	r18, r11
    31a4:	30 e2       	ldi	r19, 0x20	; 32
    31a6:	22 23       	and	r18, r18
    31a8:	19 f0       	breq	.+6      	; 0x31b0 <dtoa_prf+0x158>
    31aa:	31 93       	st	Z+, r19
    31ac:	21 50       	subi	r18, 0x01	; 1
    31ae:	fb cf       	rjmp	.-10     	; 0x31a6 <dtoa_prf+0x14e>
    31b0:	fc 01       	movw	r30, r24
    31b2:	eb 0d       	add	r30, r11
    31b4:	f1 1d       	adc	r31, r1
    31b6:	10 82       	st	Z, r1
    31b8:	8e ef       	ldi	r24, 0xFE	; 254
    31ba:	9f ef       	ldi	r25, 0xFF	; 255
    31bc:	b7 c0       	rjmp	.+366    	; 0x332c <dtoa_prf+0x2d4>
    31be:	b1 e0       	ldi	r27, 0x01	; 1
    31c0:	61 11       	cpse	r22, r1
    31c2:	01 c0       	rjmp	.+2      	; 0x31c6 <dtoa_prf+0x16e>
    31c4:	b0 e0       	ldi	r27, 0x00	; 0
    31c6:	4b 2f       	mov	r20, r27
    31c8:	50 e0       	ldi	r21, 0x00	; 0
    31ca:	18 16       	cp	r1, r24
    31cc:	19 06       	cpc	r1, r25
    31ce:	24 f4       	brge	.+8      	; 0x31d8 <dtoa_prf+0x180>
    31d0:	9c 01       	movw	r18, r24
    31d2:	2f 5f       	subi	r18, 0xFF	; 255
    31d4:	3f 4f       	sbci	r19, 0xFF	; 255
    31d6:	02 c0       	rjmp	.+4      	; 0x31dc <dtoa_prf+0x184>
    31d8:	21 e0       	ldi	r18, 0x01	; 1
    31da:	30 e0       	ldi	r19, 0x00	; 0
    31dc:	24 0f       	add	r18, r20
    31de:	35 1f       	adc	r19, r21
    31e0:	11 23       	and	r17, r17
    31e2:	29 f0       	breq	.+10     	; 0x31ee <dtoa_prf+0x196>
    31e4:	41 2f       	mov	r20, r17
    31e6:	50 e0       	ldi	r21, 0x00	; 0
    31e8:	4f 5f       	subi	r20, 0xFF	; 255
    31ea:	5f 4f       	sbci	r21, 0xFF	; 255
    31ec:	02 c0       	rjmp	.+4      	; 0x31f2 <dtoa_prf+0x19a>
    31ee:	40 e0       	ldi	r20, 0x00	; 0
    31f0:	50 e0       	ldi	r21, 0x00	; 0
    31f2:	42 0f       	add	r20, r18
    31f4:	53 1f       	adc	r21, r19
    31f6:	2b 2d       	mov	r18, r11
    31f8:	30 e0       	ldi	r19, 0x00	; 0
    31fa:	42 17       	cp	r20, r18
    31fc:	53 07       	cpc	r21, r19
    31fe:	14 f4       	brge	.+4      	; 0x3204 <dtoa_prf+0x1ac>
    3200:	b4 1a       	sub	r11, r20
    3202:	01 c0       	rjmp	.+2      	; 0x3206 <dtoa_prf+0x1ae>
    3204:	b1 2c       	mov	r11, r1
    3206:	2e 2d       	mov	r18, r14
    3208:	28 71       	andi	r18, 0x18	; 24
    320a:	59 f4       	brne	.+22     	; 0x3222 <dtoa_prf+0x1ca>
    320c:	f6 01       	movw	r30, r12
    320e:	2b 2d       	mov	r18, r11
    3210:	30 e2       	ldi	r19, 0x20	; 32
    3212:	22 23       	and	r18, r18
    3214:	19 f0       	breq	.+6      	; 0x321c <dtoa_prf+0x1c4>
    3216:	31 93       	st	Z+, r19
    3218:	21 50       	subi	r18, 0x01	; 1
    321a:	fb cf       	rjmp	.-10     	; 0x3212 <dtoa_prf+0x1ba>
    321c:	cb 0c       	add	r12, r11
    321e:	d1 1c       	adc	r13, r1
    3220:	b1 2c       	mov	r11, r1
    3222:	bb 23       	and	r27, r27
    3224:	31 f0       	breq	.+12     	; 0x3232 <dtoa_prf+0x1da>
    3226:	f6 01       	movw	r30, r12
    3228:	60 83       	st	Z, r22
    322a:	96 01       	movw	r18, r12
    322c:	2f 5f       	subi	r18, 0xFF	; 255
    322e:	3f 4f       	sbci	r19, 0xFF	; 255
    3230:	69 01       	movw	r12, r18
    3232:	a1 11       	cpse	r26, r1
    3234:	0b c0       	rjmp	.+22     	; 0x324c <dtoa_prf+0x1f4>
    3236:	f6 01       	movw	r30, r12
    3238:	2b 2d       	mov	r18, r11
    323a:	30 e3       	ldi	r19, 0x30	; 48
    323c:	22 23       	and	r18, r18
    323e:	19 f0       	breq	.+6      	; 0x3246 <dtoa_prf+0x1ee>
    3240:	31 93       	st	Z+, r19
    3242:	21 50       	subi	r18, 0x01	; 1
    3244:	fb cf       	rjmp	.-10     	; 0x323c <dtoa_prf+0x1e4>
    3246:	cb 0c       	add	r12, r11
    3248:	d1 1c       	adc	r13, r1
    324a:	b1 2c       	mov	r11, r1
    324c:	f8 0e       	add	r15, r24
    324e:	0a 81       	ldd	r16, Y+2	; 0x02
    3250:	37 2f       	mov	r19, r23
    3252:	30 71       	andi	r19, 0x10	; 16
    3254:	a3 2e       	mov	r10, r19
    3256:	74 ff       	sbrs	r23, 4
    3258:	03 c0       	rjmp	.+6      	; 0x3260 <dtoa_prf+0x208>
    325a:	01 33       	cpi	r16, 0x31	; 49
    325c:	09 f4       	brne	.+2      	; 0x3260 <dtoa_prf+0x208>
    325e:	fa 94       	dec	r15
    3260:	1f 14       	cp	r1, r15
    3262:	2c f4       	brge	.+10     	; 0x326e <dtoa_prf+0x216>
    3264:	2f 2d       	mov	r18, r15
    3266:	29 30       	cpi	r18, 0x09	; 9
    3268:	18 f0       	brcs	.+6      	; 0x3270 <dtoa_prf+0x218>
    326a:	28 e0       	ldi	r18, 0x08	; 8
    326c:	01 c0       	rjmp	.+2      	; 0x3270 <dtoa_prf+0x218>
    326e:	21 e0       	ldi	r18, 0x01	; 1
    3270:	68 2f       	mov	r22, r24
    3272:	39 2f       	mov	r19, r25
    3274:	97 ff       	sbrs	r25, 7
    3276:	02 c0       	rjmp	.+4      	; 0x327c <dtoa_prf+0x224>
    3278:	60 e0       	ldi	r22, 0x00	; 0
    327a:	30 e0       	ldi	r19, 0x00	; 0
    327c:	46 2f       	mov	r20, r22
    327e:	53 2f       	mov	r21, r19
    3280:	61 2c       	mov	r6, r1
    3282:	71 2c       	mov	r7, r1
    3284:	3e e2       	ldi	r19, 0x2E	; 46
    3286:	93 2e       	mov	r9, r19
    3288:	bc 01       	movw	r22, r24
    328a:	62 1b       	sub	r22, r18
    328c:	71 09       	sbc	r23, r1
    328e:	9b 01       	movw	r18, r22
    3290:	dc 01       	movw	r26, r24
    3292:	a4 1b       	sub	r26, r20
    3294:	b5 0b       	sbc	r27, r21
    3296:	e1 e0       	ldi	r30, 0x01	; 1
    3298:	f0 e0       	ldi	r31, 0x00	; 0
    329a:	ec 0f       	add	r30, r28
    329c:	fd 1f       	adc	r31, r29
    329e:	ae 0f       	add	r26, r30
    32a0:	bf 1f       	adc	r27, r31
    32a2:	e1 2e       	mov	r14, r17
    32a4:	f1 2c       	mov	r15, r1
    32a6:	f1 94       	neg	r15
    32a8:	e1 94       	neg	r14
    32aa:	f1 08       	sbc	r15, r1
    32ac:	4f 3f       	cpi	r20, 0xFF	; 255
    32ae:	ff ef       	ldi	r31, 0xFF	; 255
    32b0:	5f 07       	cpc	r21, r31
    32b2:	31 f4       	brne	.+12     	; 0x32c0 <dtoa_prf+0x268>
    32b4:	f6 01       	movw	r30, r12
    32b6:	90 82       	st	Z, r9
    32b8:	b6 01       	movw	r22, r12
    32ba:	6f 5f       	subi	r22, 0xFF	; 255
    32bc:	7f 4f       	sbci	r23, 0xFF	; 255
    32be:	6b 01       	movw	r12, r22
    32c0:	84 17       	cp	r24, r20
    32c2:	95 07       	cpc	r25, r21
    32c4:	4c f0       	brlt	.+18     	; 0x32d8 <dtoa_prf+0x280>
    32c6:	24 17       	cp	r18, r20
    32c8:	35 07       	cpc	r19, r21
    32ca:	34 f4       	brge	.+12     	; 0x32d8 <dtoa_prf+0x280>
    32cc:	bd 01       	movw	r22, r26
    32ce:	66 0d       	add	r22, r6
    32d0:	77 1d       	adc	r23, r7
    32d2:	fb 01       	movw	r30, r22
    32d4:	11 81       	ldd	r17, Z+1	; 0x01
    32d6:	01 c0       	rjmp	.+2      	; 0x32da <dtoa_prf+0x282>
    32d8:	10 e3       	ldi	r17, 0x30	; 48
    32da:	41 50       	subi	r20, 0x01	; 1
    32dc:	51 09       	sbc	r21, r1
    32de:	ff ef       	ldi	r31, 0xFF	; 255
    32e0:	6f 1a       	sub	r6, r31
    32e2:	7f 0a       	sbc	r7, r31
    32e4:	b6 01       	movw	r22, r12
    32e6:	6f 5f       	subi	r22, 0xFF	; 255
    32e8:	7f 4f       	sbci	r23, 0xFF	; 255
    32ea:	4e 15       	cp	r20, r14
    32ec:	5f 05       	cpc	r21, r15
    32ee:	24 f0       	brlt	.+8      	; 0x32f8 <dtoa_prf+0x2a0>
    32f0:	f6 01       	movw	r30, r12
    32f2:	10 83       	st	Z, r17
    32f4:	6b 01       	movw	r12, r22
    32f6:	da cf       	rjmp	.-76     	; 0x32ac <dtoa_prf+0x254>
    32f8:	48 17       	cp	r20, r24
    32fa:	59 07       	cpc	r21, r25
    32fc:	39 f4       	brne	.+14     	; 0x330c <dtoa_prf+0x2b4>
    32fe:	06 33       	cpi	r16, 0x36	; 54
    3300:	20 f4       	brcc	.+8      	; 0x330a <dtoa_prf+0x2b2>
    3302:	05 33       	cpi	r16, 0x35	; 53
    3304:	19 f4       	brne	.+6      	; 0x330c <dtoa_prf+0x2b4>
    3306:	a1 10       	cpse	r10, r1
    3308:	01 c0       	rjmp	.+2      	; 0x330c <dtoa_prf+0x2b4>
    330a:	11 e3       	ldi	r17, 0x31	; 49
    330c:	f6 01       	movw	r30, r12
    330e:	10 83       	st	Z, r17
    3310:	fb 01       	movw	r30, r22
    3312:	8b 2d       	mov	r24, r11
    3314:	90 e2       	ldi	r25, 0x20	; 32
    3316:	88 23       	and	r24, r24
    3318:	19 f0       	breq	.+6      	; 0x3320 <dtoa_prf+0x2c8>
    331a:	91 93       	st	Z+, r25
    331c:	81 50       	subi	r24, 0x01	; 1
    331e:	fb cf       	rjmp	.-10     	; 0x3316 <dtoa_prf+0x2be>
    3320:	fb 01       	movw	r30, r22
    3322:	eb 0d       	add	r30, r11
    3324:	f1 1d       	adc	r31, r1
    3326:	10 82       	st	Z, r1
    3328:	80 e0       	ldi	r24, 0x00	; 0
    332a:	90 e0       	ldi	r25, 0x00	; 0
    332c:	29 96       	adiw	r28, 0x09	; 9
    332e:	0f b6       	in	r0, 0x3f	; 63
    3330:	f8 94       	cli
    3332:	de bf       	out	0x3e, r29	; 62
    3334:	0f be       	out	0x3f, r0	; 63
    3336:	cd bf       	out	0x3d, r28	; 61
    3338:	df 91       	pop	r29
    333a:	cf 91       	pop	r28
    333c:	1f 91       	pop	r17
    333e:	0f 91       	pop	r16
    3340:	ff 90       	pop	r15
    3342:	ef 90       	pop	r14
    3344:	df 90       	pop	r13
    3346:	cf 90       	pop	r12
    3348:	bf 90       	pop	r11
    334a:	af 90       	pop	r10
    334c:	9f 90       	pop	r9
    334e:	7f 90       	pop	r7
    3350:	6f 90       	pop	r6
    3352:	08 95       	ret

00003354 <strtod>:
    3354:	8f 92       	push	r8
    3356:	9f 92       	push	r9
    3358:	af 92       	push	r10
    335a:	bf 92       	push	r11
    335c:	cf 92       	push	r12
    335e:	df 92       	push	r13
    3360:	ef 92       	push	r14
    3362:	ff 92       	push	r15
    3364:	0f 93       	push	r16
    3366:	1f 93       	push	r17
    3368:	cf 93       	push	r28
    336a:	df 93       	push	r29
    336c:	8b 01       	movw	r16, r22
    336e:	61 15       	cp	r22, r1
    3370:	71 05       	cpc	r23, r1
    3372:	21 f0       	breq	.+8      	; 0x337c <strtod+0x28>
    3374:	db 01       	movw	r26, r22
    3376:	8c 93       	st	X, r24
    3378:	11 96       	adiw	r26, 0x01	; 1
    337a:	9c 93       	st	X, r25
    337c:	ec 01       	movw	r28, r24
    337e:	5e 01       	movw	r10, r28
    3380:	bf ef       	ldi	r27, 0xFF	; 255
    3382:	ab 1a       	sub	r10, r27
    3384:	bb 0a       	sbc	r11, r27
    3386:	75 01       	movw	r14, r10
    3388:	c8 80       	ld	r12, Y
    338a:	8c 2d       	mov	r24, r12
    338c:	90 e0       	ldi	r25, 0x00	; 0
    338e:	0e 94 f3 1b 	call	0x37e6	; 0x37e6 <isspace>
    3392:	89 2b       	or	r24, r25
    3394:	11 f0       	breq	.+4      	; 0x339a <strtod+0x46>
    3396:	e5 01       	movw	r28, r10
    3398:	f2 cf       	rjmp	.-28     	; 0x337e <strtod+0x2a>
    339a:	ed e2       	ldi	r30, 0x2D	; 45
    339c:	ce 12       	cpse	r12, r30
    339e:	08 c0       	rjmp	.+16     	; 0x33b0 <strtod+0x5c>
    33a0:	7e 01       	movw	r14, r28
    33a2:	f2 e0       	ldi	r31, 0x02	; 2
    33a4:	ef 0e       	add	r14, r31
    33a6:	f1 1c       	adc	r15, r1
    33a8:	c9 80       	ldd	r12, Y+1	; 0x01
    33aa:	dd 24       	eor	r13, r13
    33ac:	d3 94       	inc	r13
    33ae:	09 c0       	rjmp	.+18     	; 0x33c2 <strtod+0x6e>
    33b0:	2b e2       	ldi	r18, 0x2B	; 43
    33b2:	c2 12       	cpse	r12, r18
    33b4:	05 c0       	rjmp	.+10     	; 0x33c0 <strtod+0x6c>
    33b6:	7e 01       	movw	r14, r28
    33b8:	42 e0       	ldi	r20, 0x02	; 2
    33ba:	e4 0e       	add	r14, r20
    33bc:	f1 1c       	adc	r15, r1
    33be:	c9 80       	ldd	r12, Y+1	; 0x01
    33c0:	d1 2c       	mov	r13, r1
    33c2:	e7 01       	movw	r28, r14
    33c4:	21 97       	sbiw	r28, 0x01	; 1
    33c6:	43 e0       	ldi	r20, 0x03	; 3
    33c8:	50 e0       	ldi	r21, 0x00	; 0
    33ca:	6e e8       	ldi	r22, 0x8E	; 142
    33cc:	71 e0       	ldi	r23, 0x01	; 1
    33ce:	ce 01       	movw	r24, r28
    33d0:	0e 94 fb 1b 	call	0x37f6	; 0x37f6 <strncasecmp_P>
    33d4:	89 2b       	or	r24, r25
    33d6:	c1 f4       	brne	.+48     	; 0x3408 <strtod+0xb4>
    33d8:	23 96       	adiw	r28, 0x03	; 3
    33da:	45 e0       	ldi	r20, 0x05	; 5
    33dc:	50 e0       	ldi	r21, 0x00	; 0
    33de:	69 e8       	ldi	r22, 0x89	; 137
    33e0:	71 e0       	ldi	r23, 0x01	; 1
    33e2:	ce 01       	movw	r24, r28
    33e4:	0e 94 fb 1b 	call	0x37f6	; 0x37f6 <strncasecmp_P>
    33e8:	89 2b       	or	r24, r25
    33ea:	09 f4       	brne	.+2      	; 0x33ee <strtod+0x9a>
    33ec:	25 96       	adiw	r28, 0x05	; 5
    33ee:	01 15       	cp	r16, r1
    33f0:	11 05       	cpc	r17, r1
    33f2:	19 f0       	breq	.+6      	; 0x33fa <strtod+0xa6>
    33f4:	d8 01       	movw	r26, r16
    33f6:	cd 93       	st	X+, r28
    33f8:	dc 93       	st	X, r29
    33fa:	d1 10       	cpse	r13, r1
    33fc:	06 c1       	rjmp	.+524    	; 0x360a <strtod+0x2b6>
    33fe:	60 e0       	ldi	r22, 0x00	; 0
    3400:	70 e0       	ldi	r23, 0x00	; 0
    3402:	80 e8       	ldi	r24, 0x80	; 128
    3404:	9f e7       	ldi	r25, 0x7F	; 127
    3406:	0a c1       	rjmp	.+532    	; 0x361c <strtod+0x2c8>
    3408:	43 e0       	ldi	r20, 0x03	; 3
    340a:	50 e0       	ldi	r21, 0x00	; 0
    340c:	66 e8       	ldi	r22, 0x86	; 134
    340e:	71 e0       	ldi	r23, 0x01	; 1
    3410:	ce 01       	movw	r24, r28
    3412:	0e 94 fb 1b 	call	0x37f6	; 0x37f6 <strncasecmp_P>
    3416:	89 2b       	or	r24, r25
    3418:	59 f4       	brne	.+22     	; 0x3430 <strtod+0xdc>
    341a:	01 15       	cp	r16, r1
    341c:	11 05       	cpc	r17, r1
    341e:	09 f4       	brne	.+2      	; 0x3422 <strtod+0xce>
    3420:	f9 c0       	rjmp	.+498    	; 0x3614 <strtod+0x2c0>
    3422:	b2 e0       	ldi	r27, 0x02	; 2
    3424:	eb 0e       	add	r14, r27
    3426:	f1 1c       	adc	r15, r1
    3428:	f8 01       	movw	r30, r16
    342a:	f1 82       	std	Z+1, r15	; 0x01
    342c:	e0 82       	st	Z, r14
    342e:	f2 c0       	rjmp	.+484    	; 0x3614 <strtod+0x2c0>
    3430:	f7 01       	movw	r30, r14
    3432:	60 e0       	ldi	r22, 0x00	; 0
    3434:	70 e0       	ldi	r23, 0x00	; 0
    3436:	cb 01       	movw	r24, r22
    3438:	c0 e0       	ldi	r28, 0x00	; 0
    343a:	d0 e0       	ldi	r29, 0x00	; 0
    343c:	7f 01       	movw	r14, r30
    343e:	a0 ed       	ldi	r26, 0xD0	; 208
    3440:	aa 2e       	mov	r10, r26
    3442:	ac 0c       	add	r10, r12
    3444:	29 e0       	ldi	r18, 0x09	; 9
    3446:	2a 15       	cp	r18, r10
    3448:	30 f1       	brcs	.+76     	; 0x3496 <strtod+0x142>
    344a:	4d 2d       	mov	r20, r13
    344c:	42 60       	ori	r20, 0x02	; 2
    344e:	b4 2e       	mov	r11, r20
    3450:	2d 2d       	mov	r18, r13
    3452:	28 70       	andi	r18, 0x08	; 8
    3454:	d2 fe       	sbrs	r13, 2
    3456:	04 c0       	rjmp	.+8      	; 0x3460 <strtod+0x10c>
    3458:	21 11       	cpse	r18, r1
    345a:	25 c0       	rjmp	.+74     	; 0x34a6 <strtod+0x152>
    345c:	21 96       	adiw	r28, 0x01	; 1
    345e:	23 c0       	rjmp	.+70     	; 0x34a6 <strtod+0x152>
    3460:	21 11       	cpse	r18, r1
    3462:	21 97       	sbiw	r28, 0x01	; 1
    3464:	a5 e0       	ldi	r26, 0x05	; 5
    3466:	b0 e0       	ldi	r27, 0x00	; 0
    3468:	9b 01       	movw	r18, r22
    346a:	ac 01       	movw	r20, r24
    346c:	0e 94 b1 14 	call	0x2962	; 0x2962 <__muluhisi3>
    3470:	66 0f       	add	r22, r22
    3472:	77 1f       	adc	r23, r23
    3474:	88 1f       	adc	r24, r24
    3476:	99 1f       	adc	r25, r25
    3478:	6a 0d       	add	r22, r10
    347a:	71 1d       	adc	r23, r1
    347c:	81 1d       	adc	r24, r1
    347e:	91 1d       	adc	r25, r1
    3480:	68 39       	cpi	r22, 0x98	; 152
    3482:	a9 e9       	ldi	r26, 0x99	; 153
    3484:	7a 07       	cpc	r23, r26
    3486:	8a 07       	cpc	r24, r26
    3488:	a9 e1       	ldi	r26, 0x19	; 25
    348a:	9a 07       	cpc	r25, r26
    348c:	60 f0       	brcs	.+24     	; 0x34a6 <strtod+0x152>
    348e:	bd 2d       	mov	r27, r13
    3490:	b6 60       	ori	r27, 0x06	; 6
    3492:	bb 2e       	mov	r11, r27
    3494:	08 c0       	rjmp	.+16     	; 0x34a6 <strtod+0x152>
    3496:	2e ef       	ldi	r18, 0xFE	; 254
    3498:	a2 12       	cpse	r10, r18
    349a:	0a c0       	rjmp	.+20     	; 0x34b0 <strtod+0x15c>
    349c:	d3 fc       	sbrc	r13, 3
    349e:	50 c0       	rjmp	.+160    	; 0x3540 <strtod+0x1ec>
    34a0:	4d 2d       	mov	r20, r13
    34a2:	48 60       	ori	r20, 0x08	; 8
    34a4:	b4 2e       	mov	r11, r20
    34a6:	31 96       	adiw	r30, 0x01	; 1
    34a8:	d7 01       	movw	r26, r14
    34aa:	cc 90       	ld	r12, X
    34ac:	db 2c       	mov	r13, r11
    34ae:	c6 cf       	rjmp	.-116    	; 0x343c <strtod+0xe8>
    34b0:	2c 2d       	mov	r18, r12
    34b2:	2f 7d       	andi	r18, 0xDF	; 223
    34b4:	25 34       	cpi	r18, 0x45	; 69
    34b6:	09 f0       	breq	.+2      	; 0x34ba <strtod+0x166>
    34b8:	43 c0       	rjmp	.+134    	; 0x3540 <strtod+0x1ec>
    34ba:	a0 81       	ld	r26, Z
    34bc:	ad 32       	cpi	r26, 0x2D	; 45
    34be:	41 f4       	brne	.+16     	; 0x34d0 <strtod+0x17c>
    34c0:	bd 2d       	mov	r27, r13
    34c2:	b0 61       	ori	r27, 0x10	; 16
    34c4:	db 2e       	mov	r13, r27
    34c6:	7f 01       	movw	r14, r30
    34c8:	22 e0       	ldi	r18, 0x02	; 2
    34ca:	e2 0e       	add	r14, r18
    34cc:	f1 1c       	adc	r15, r1
    34ce:	0c c0       	rjmp	.+24     	; 0x34e8 <strtod+0x194>
    34d0:	7f 01       	movw	r14, r30
    34d2:	ab 32       	cpi	r26, 0x2B	; 43
    34d4:	31 f0       	breq	.+12     	; 0x34e2 <strtod+0x18e>
    34d6:	4f ef       	ldi	r20, 0xFF	; 255
    34d8:	e4 1a       	sub	r14, r20
    34da:	f4 0a       	sbc	r15, r20
    34dc:	21 e0       	ldi	r18, 0x01	; 1
    34de:	30 e0       	ldi	r19, 0x00	; 0
    34e0:	06 c0       	rjmp	.+12     	; 0x34ee <strtod+0x19a>
    34e2:	a2 e0       	ldi	r26, 0x02	; 2
    34e4:	ea 0e       	add	r14, r26
    34e6:	f1 1c       	adc	r15, r1
    34e8:	a1 81       	ldd	r26, Z+1	; 0x01
    34ea:	22 e0       	ldi	r18, 0x02	; 2
    34ec:	30 e0       	ldi	r19, 0x00	; 0
    34ee:	a0 53       	subi	r26, 0x30	; 48
    34f0:	aa 30       	cpi	r26, 0x0A	; 10
    34f2:	18 f0       	brcs	.+6      	; 0x34fa <strtod+0x1a6>
    34f4:	e2 1a       	sub	r14, r18
    34f6:	f3 0a       	sbc	r15, r19
    34f8:	23 c0       	rjmp	.+70     	; 0x3540 <strtod+0x1ec>
    34fa:	f7 01       	movw	r30, r14
    34fc:	20 e0       	ldi	r18, 0x00	; 0
    34fe:	30 e0       	ldi	r19, 0x00	; 0
    3500:	20 38       	cpi	r18, 0x80	; 128
    3502:	bc e0       	ldi	r27, 0x0C	; 12
    3504:	3b 07       	cpc	r19, r27
    3506:	5c f4       	brge	.+22     	; 0x351e <strtod+0x1ca>
    3508:	a9 01       	movw	r20, r18
    350a:	44 0f       	add	r20, r20
    350c:	55 1f       	adc	r21, r21
    350e:	44 0f       	add	r20, r20
    3510:	55 1f       	adc	r21, r21
    3512:	24 0f       	add	r18, r20
    3514:	35 1f       	adc	r19, r21
    3516:	22 0f       	add	r18, r18
    3518:	33 1f       	adc	r19, r19
    351a:	2a 0f       	add	r18, r26
    351c:	31 1d       	adc	r19, r1
    351e:	af 01       	movw	r20, r30
    3520:	4f 5f       	subi	r20, 0xFF	; 255
    3522:	5f 4f       	sbci	r21, 0xFF	; 255
    3524:	7a 01       	movw	r14, r20
    3526:	a0 81       	ld	r26, Z
    3528:	a0 53       	subi	r26, 0x30	; 48
    352a:	aa 30       	cpi	r26, 0x0A	; 10
    352c:	10 f4       	brcc	.+4      	; 0x3532 <strtod+0x1de>
    352e:	fa 01       	movw	r30, r20
    3530:	e7 cf       	rjmp	.-50     	; 0x3500 <strtod+0x1ac>
    3532:	d4 fe       	sbrs	r13, 4
    3534:	03 c0       	rjmp	.+6      	; 0x353c <strtod+0x1e8>
    3536:	31 95       	neg	r19
    3538:	21 95       	neg	r18
    353a:	31 09       	sbc	r19, r1
    353c:	c2 0f       	add	r28, r18
    353e:	d3 1f       	adc	r29, r19
    3540:	d1 fe       	sbrs	r13, 1
    3542:	09 c0       	rjmp	.+18     	; 0x3556 <strtod+0x202>
    3544:	01 15       	cp	r16, r1
    3546:	11 05       	cpc	r17, r1
    3548:	31 f0       	breq	.+12     	; 0x3556 <strtod+0x202>
    354a:	e1 e0       	ldi	r30, 0x01	; 1
    354c:	ee 1a       	sub	r14, r30
    354e:	f1 08       	sbc	r15, r1
    3550:	d8 01       	movw	r26, r16
    3552:	ed 92       	st	X+, r14
    3554:	fc 92       	st	X, r15
    3556:	0e 94 c8 15 	call	0x2b90	; 0x2b90 <__floatunsisf>
    355a:	2d 2d       	mov	r18, r13
    355c:	23 70       	andi	r18, 0x03	; 3
    355e:	23 30       	cpi	r18, 0x03	; 3
    3560:	19 f0       	breq	.+6      	; 0x3568 <strtod+0x214>
    3562:	4b 01       	movw	r8, r22
    3564:	5c 01       	movw	r10, r24
    3566:	06 c0       	rjmp	.+12     	; 0x3574 <strtod+0x220>
    3568:	4b 01       	movw	r8, r22
    356a:	5c 01       	movw	r10, r24
    356c:	b7 fa       	bst	r11, 7
    356e:	b0 94       	com	r11
    3570:	b7 f8       	bld	r11, 7
    3572:	b0 94       	com	r11
    3574:	20 e0       	ldi	r18, 0x00	; 0
    3576:	30 e0       	ldi	r19, 0x00	; 0
    3578:	a9 01       	movw	r20, r18
    357a:	c5 01       	movw	r24, r10
    357c:	b4 01       	movw	r22, r8
    357e:	0e 94 30 15 	call	0x2a60	; 0x2a60 <__cmpsf2>
    3582:	88 23       	and	r24, r24
    3584:	09 f4       	brne	.+2      	; 0x3588 <strtod+0x234>
    3586:	3e c0       	rjmp	.+124    	; 0x3604 <strtod+0x2b0>
    3588:	d7 ff       	sbrs	r29, 7
    358a:	06 c0       	rjmp	.+12     	; 0x3598 <strtod+0x244>
    358c:	d1 95       	neg	r29
    358e:	c1 95       	neg	r28
    3590:	d1 09       	sbc	r29, r1
    3592:	05 ea       	ldi	r16, 0xA5	; 165
    3594:	11 e0       	ldi	r17, 0x01	; 1
    3596:	02 c0       	rjmp	.+4      	; 0x359c <strtod+0x248>
    3598:	0d eb       	ldi	r16, 0xBD	; 189
    359a:	11 e0       	ldi	r17, 0x01	; 1
    359c:	68 01       	movw	r12, r16
    359e:	b8 e1       	ldi	r27, 0x18	; 24
    35a0:	cb 1a       	sub	r12, r27
    35a2:	d1 08       	sbc	r13, r1
    35a4:	90 e2       	ldi	r25, 0x20	; 32
    35a6:	e9 2e       	mov	r14, r25
    35a8:	f1 2c       	mov	r15, r1
    35aa:	ce 15       	cp	r28, r14
    35ac:	df 05       	cpc	r29, r15
    35ae:	74 f0       	brlt	.+28     	; 0x35cc <strtod+0x278>
    35b0:	f8 01       	movw	r30, r16
    35b2:	25 91       	lpm	r18, Z+
    35b4:	35 91       	lpm	r19, Z+
    35b6:	45 91       	lpm	r20, Z+
    35b8:	54 91       	lpm	r21, Z
    35ba:	c5 01       	movw	r24, r10
    35bc:	b4 01       	movw	r22, r8
    35be:	0e 94 7e 16 	call	0x2cfc	; 0x2cfc <__mulsf3>
    35c2:	4b 01       	movw	r8, r22
    35c4:	5c 01       	movw	r10, r24
    35c6:	ce 19       	sub	r28, r14
    35c8:	df 09       	sbc	r29, r15
    35ca:	ef cf       	rjmp	.-34     	; 0x35aa <strtod+0x256>
    35cc:	04 50       	subi	r16, 0x04	; 4
    35ce:	11 09       	sbc	r17, r1
    35d0:	f5 94       	asr	r15
    35d2:	e7 94       	ror	r14
    35d4:	0c 15       	cp	r16, r12
    35d6:	1d 05       	cpc	r17, r13
    35d8:	41 f7       	brne	.-48     	; 0x35aa <strtod+0x256>
    35da:	8a 2d       	mov	r24, r10
    35dc:	88 0f       	add	r24, r24
    35de:	8b 2d       	mov	r24, r11
    35e0:	88 1f       	adc	r24, r24
    35e2:	8f 3f       	cpi	r24, 0xFF	; 255
    35e4:	49 f0       	breq	.+18     	; 0x35f8 <strtod+0x2a4>
    35e6:	20 e0       	ldi	r18, 0x00	; 0
    35e8:	30 e0       	ldi	r19, 0x00	; 0
    35ea:	a9 01       	movw	r20, r18
    35ec:	c5 01       	movw	r24, r10
    35ee:	b4 01       	movw	r22, r8
    35f0:	0e 94 30 15 	call	0x2a60	; 0x2a60 <__cmpsf2>
    35f4:	81 11       	cpse	r24, r1
    35f6:	06 c0       	rjmp	.+12     	; 0x3604 <strtod+0x2b0>
    35f8:	82 e2       	ldi	r24, 0x22	; 34
    35fa:	90 e0       	ldi	r25, 0x00	; 0
    35fc:	90 93 2c 07 	sts	0x072C, r25
    3600:	80 93 2b 07 	sts	0x072B, r24
    3604:	c5 01       	movw	r24, r10
    3606:	b4 01       	movw	r22, r8
    3608:	09 c0       	rjmp	.+18     	; 0x361c <strtod+0x2c8>
    360a:	60 e0       	ldi	r22, 0x00	; 0
    360c:	70 e0       	ldi	r23, 0x00	; 0
    360e:	80 e8       	ldi	r24, 0x80	; 128
    3610:	9f ef       	ldi	r25, 0xFF	; 255
    3612:	04 c0       	rjmp	.+8      	; 0x361c <strtod+0x2c8>
    3614:	60 e0       	ldi	r22, 0x00	; 0
    3616:	70 e0       	ldi	r23, 0x00	; 0
    3618:	80 ec       	ldi	r24, 0xC0	; 192
    361a:	9f e7       	ldi	r25, 0x7F	; 127
    361c:	df 91       	pop	r29
    361e:	cf 91       	pop	r28
    3620:	1f 91       	pop	r17
    3622:	0f 91       	pop	r16
    3624:	ff 90       	pop	r15
    3626:	ef 90       	pop	r14
    3628:	df 90       	pop	r13
    362a:	cf 90       	pop	r12
    362c:	bf 90       	pop	r11
    362e:	af 90       	pop	r10
    3630:	9f 90       	pop	r9
    3632:	8f 90       	pop	r8
    3634:	08 95       	ret

00003636 <__ftoa_engine>:
    3636:	28 30       	cpi	r18, 0x08	; 8
    3638:	08 f0       	brcs	.+2      	; 0x363c <__ftoa_engine+0x6>
    363a:	27 e0       	ldi	r18, 0x07	; 7
    363c:	33 27       	eor	r19, r19
    363e:	da 01       	movw	r26, r20
    3640:	99 0f       	add	r25, r25
    3642:	31 1d       	adc	r19, r1
    3644:	87 fd       	sbrc	r24, 7
    3646:	91 60       	ori	r25, 0x01	; 1
    3648:	00 96       	adiw	r24, 0x00	; 0
    364a:	61 05       	cpc	r22, r1
    364c:	71 05       	cpc	r23, r1
    364e:	39 f4       	brne	.+14     	; 0x365e <__ftoa_engine+0x28>
    3650:	32 60       	ori	r19, 0x02	; 2
    3652:	2e 5f       	subi	r18, 0xFE	; 254
    3654:	3d 93       	st	X+, r19
    3656:	30 e3       	ldi	r19, 0x30	; 48
    3658:	2a 95       	dec	r18
    365a:	e1 f7       	brne	.-8      	; 0x3654 <__ftoa_engine+0x1e>
    365c:	08 95       	ret
    365e:	9f 3f       	cpi	r25, 0xFF	; 255
    3660:	30 f0       	brcs	.+12     	; 0x366e <__ftoa_engine+0x38>
    3662:	80 38       	cpi	r24, 0x80	; 128
    3664:	71 05       	cpc	r23, r1
    3666:	61 05       	cpc	r22, r1
    3668:	09 f0       	breq	.+2      	; 0x366c <__ftoa_engine+0x36>
    366a:	3c 5f       	subi	r19, 0xFC	; 252
    366c:	3c 5f       	subi	r19, 0xFC	; 252
    366e:	3d 93       	st	X+, r19
    3670:	91 30       	cpi	r25, 0x01	; 1
    3672:	08 f0       	brcs	.+2      	; 0x3676 <__ftoa_engine+0x40>
    3674:	80 68       	ori	r24, 0x80	; 128
    3676:	91 1d       	adc	r25, r1
    3678:	df 93       	push	r29
    367a:	cf 93       	push	r28
    367c:	1f 93       	push	r17
    367e:	0f 93       	push	r16
    3680:	ff 92       	push	r15
    3682:	ef 92       	push	r14
    3684:	19 2f       	mov	r17, r25
    3686:	98 7f       	andi	r25, 0xF8	; 248
    3688:	96 95       	lsr	r25
    368a:	e9 2f       	mov	r30, r25
    368c:	96 95       	lsr	r25
    368e:	96 95       	lsr	r25
    3690:	e9 0f       	add	r30, r25
    3692:	ff 27       	eor	r31, r31
    3694:	e5 5e       	subi	r30, 0xE5	; 229
    3696:	fd 4f       	sbci	r31, 0xFD	; 253
    3698:	99 27       	eor	r25, r25
    369a:	33 27       	eor	r19, r19
    369c:	ee 24       	eor	r14, r14
    369e:	ff 24       	eor	r15, r15
    36a0:	a7 01       	movw	r20, r14
    36a2:	e7 01       	movw	r28, r14
    36a4:	05 90       	lpm	r0, Z+
    36a6:	08 94       	sec
    36a8:	07 94       	ror	r0
    36aa:	28 f4       	brcc	.+10     	; 0x36b6 <__ftoa_engine+0x80>
    36ac:	36 0f       	add	r19, r22
    36ae:	e7 1e       	adc	r14, r23
    36b0:	f8 1e       	adc	r15, r24
    36b2:	49 1f       	adc	r20, r25
    36b4:	51 1d       	adc	r21, r1
    36b6:	66 0f       	add	r22, r22
    36b8:	77 1f       	adc	r23, r23
    36ba:	88 1f       	adc	r24, r24
    36bc:	99 1f       	adc	r25, r25
    36be:	06 94       	lsr	r0
    36c0:	a1 f7       	brne	.-24     	; 0x36aa <__ftoa_engine+0x74>
    36c2:	05 90       	lpm	r0, Z+
    36c4:	07 94       	ror	r0
    36c6:	28 f4       	brcc	.+10     	; 0x36d2 <__ftoa_engine+0x9c>
    36c8:	e7 0e       	add	r14, r23
    36ca:	f8 1e       	adc	r15, r24
    36cc:	49 1f       	adc	r20, r25
    36ce:	56 1f       	adc	r21, r22
    36d0:	c1 1d       	adc	r28, r1
    36d2:	77 0f       	add	r23, r23
    36d4:	88 1f       	adc	r24, r24
    36d6:	99 1f       	adc	r25, r25
    36d8:	66 1f       	adc	r22, r22
    36da:	06 94       	lsr	r0
    36dc:	a1 f7       	brne	.-24     	; 0x36c6 <__ftoa_engine+0x90>
    36de:	05 90       	lpm	r0, Z+
    36e0:	07 94       	ror	r0
    36e2:	28 f4       	brcc	.+10     	; 0x36ee <__ftoa_engine+0xb8>
    36e4:	f8 0e       	add	r15, r24
    36e6:	49 1f       	adc	r20, r25
    36e8:	56 1f       	adc	r21, r22
    36ea:	c7 1f       	adc	r28, r23
    36ec:	d1 1d       	adc	r29, r1
    36ee:	88 0f       	add	r24, r24
    36f0:	99 1f       	adc	r25, r25
    36f2:	66 1f       	adc	r22, r22
    36f4:	77 1f       	adc	r23, r23
    36f6:	06 94       	lsr	r0
    36f8:	a1 f7       	brne	.-24     	; 0x36e2 <__ftoa_engine+0xac>
    36fa:	05 90       	lpm	r0, Z+
    36fc:	07 94       	ror	r0
    36fe:	20 f4       	brcc	.+8      	; 0x3708 <__ftoa_engine+0xd2>
    3700:	49 0f       	add	r20, r25
    3702:	56 1f       	adc	r21, r22
    3704:	c7 1f       	adc	r28, r23
    3706:	d8 1f       	adc	r29, r24
    3708:	99 0f       	add	r25, r25
    370a:	66 1f       	adc	r22, r22
    370c:	77 1f       	adc	r23, r23
    370e:	88 1f       	adc	r24, r24
    3710:	06 94       	lsr	r0
    3712:	a9 f7       	brne	.-22     	; 0x36fe <__ftoa_engine+0xc8>
    3714:	84 91       	lpm	r24, Z
    3716:	10 95       	com	r17
    3718:	17 70       	andi	r17, 0x07	; 7
    371a:	41 f0       	breq	.+16     	; 0x372c <__ftoa_engine+0xf6>
    371c:	d6 95       	lsr	r29
    371e:	c7 95       	ror	r28
    3720:	57 95       	ror	r21
    3722:	47 95       	ror	r20
    3724:	f7 94       	ror	r15
    3726:	e7 94       	ror	r14
    3728:	1a 95       	dec	r17
    372a:	c1 f7       	brne	.-16     	; 0x371c <__ftoa_engine+0xe6>
    372c:	e1 ec       	ldi	r30, 0xC1	; 193
    372e:	f1 e0       	ldi	r31, 0x01	; 1
    3730:	68 94       	set
    3732:	15 90       	lpm	r1, Z+
    3734:	15 91       	lpm	r17, Z+
    3736:	35 91       	lpm	r19, Z+
    3738:	65 91       	lpm	r22, Z+
    373a:	95 91       	lpm	r25, Z+
    373c:	05 90       	lpm	r0, Z+
    373e:	7f e2       	ldi	r23, 0x2F	; 47
    3740:	73 95       	inc	r23
    3742:	e1 18       	sub	r14, r1
    3744:	f1 0a       	sbc	r15, r17
    3746:	43 0b       	sbc	r20, r19
    3748:	56 0b       	sbc	r21, r22
    374a:	c9 0b       	sbc	r28, r25
    374c:	d0 09       	sbc	r29, r0
    374e:	c0 f7       	brcc	.-16     	; 0x3740 <__ftoa_engine+0x10a>
    3750:	e1 0c       	add	r14, r1
    3752:	f1 1e       	adc	r15, r17
    3754:	43 1f       	adc	r20, r19
    3756:	56 1f       	adc	r21, r22
    3758:	c9 1f       	adc	r28, r25
    375a:	d0 1d       	adc	r29, r0
    375c:	7e f4       	brtc	.+30     	; 0x377c <__ftoa_engine+0x146>
    375e:	70 33       	cpi	r23, 0x30	; 48
    3760:	11 f4       	brne	.+4      	; 0x3766 <__ftoa_engine+0x130>
    3762:	8a 95       	dec	r24
    3764:	e6 cf       	rjmp	.-52     	; 0x3732 <__ftoa_engine+0xfc>
    3766:	e8 94       	clt
    3768:	01 50       	subi	r16, 0x01	; 1
    376a:	30 f0       	brcs	.+12     	; 0x3778 <__ftoa_engine+0x142>
    376c:	08 0f       	add	r16, r24
    376e:	0a f4       	brpl	.+2      	; 0x3772 <__ftoa_engine+0x13c>
    3770:	00 27       	eor	r16, r16
    3772:	02 17       	cp	r16, r18
    3774:	08 f4       	brcc	.+2      	; 0x3778 <__ftoa_engine+0x142>
    3776:	20 2f       	mov	r18, r16
    3778:	23 95       	inc	r18
    377a:	02 2f       	mov	r16, r18
    377c:	7a 33       	cpi	r23, 0x3A	; 58
    377e:	28 f0       	brcs	.+10     	; 0x378a <__ftoa_engine+0x154>
    3780:	79 e3       	ldi	r23, 0x39	; 57
    3782:	7d 93       	st	X+, r23
    3784:	2a 95       	dec	r18
    3786:	e9 f7       	brne	.-6      	; 0x3782 <__ftoa_engine+0x14c>
    3788:	10 c0       	rjmp	.+32     	; 0x37aa <__ftoa_engine+0x174>
    378a:	7d 93       	st	X+, r23
    378c:	2a 95       	dec	r18
    378e:	89 f6       	brne	.-94     	; 0x3732 <__ftoa_engine+0xfc>
    3790:	06 94       	lsr	r0
    3792:	97 95       	ror	r25
    3794:	67 95       	ror	r22
    3796:	37 95       	ror	r19
    3798:	17 95       	ror	r17
    379a:	17 94       	ror	r1
    379c:	e1 18       	sub	r14, r1
    379e:	f1 0a       	sbc	r15, r17
    37a0:	43 0b       	sbc	r20, r19
    37a2:	56 0b       	sbc	r21, r22
    37a4:	c9 0b       	sbc	r28, r25
    37a6:	d0 09       	sbc	r29, r0
    37a8:	98 f0       	brcs	.+38     	; 0x37d0 <__ftoa_engine+0x19a>
    37aa:	23 95       	inc	r18
    37ac:	7e 91       	ld	r23, -X
    37ae:	73 95       	inc	r23
    37b0:	7a 33       	cpi	r23, 0x3A	; 58
    37b2:	08 f0       	brcs	.+2      	; 0x37b6 <__ftoa_engine+0x180>
    37b4:	70 e3       	ldi	r23, 0x30	; 48
    37b6:	7c 93       	st	X, r23
    37b8:	20 13       	cpse	r18, r16
    37ba:	b8 f7       	brcc	.-18     	; 0x37aa <__ftoa_engine+0x174>
    37bc:	7e 91       	ld	r23, -X
    37be:	70 61       	ori	r23, 0x10	; 16
    37c0:	7d 93       	st	X+, r23
    37c2:	30 f0       	brcs	.+12     	; 0x37d0 <__ftoa_engine+0x19a>
    37c4:	83 95       	inc	r24
    37c6:	71 e3       	ldi	r23, 0x31	; 49
    37c8:	7d 93       	st	X+, r23
    37ca:	70 e3       	ldi	r23, 0x30	; 48
    37cc:	2a 95       	dec	r18
    37ce:	e1 f7       	brne	.-8      	; 0x37c8 <__ftoa_engine+0x192>
    37d0:	11 24       	eor	r1, r1
    37d2:	ef 90       	pop	r14
    37d4:	ff 90       	pop	r15
    37d6:	0f 91       	pop	r16
    37d8:	1f 91       	pop	r17
    37da:	cf 91       	pop	r28
    37dc:	df 91       	pop	r29
    37de:	99 27       	eor	r25, r25
    37e0:	87 fd       	sbrc	r24, 7
    37e2:	90 95       	com	r25
    37e4:	08 95       	ret

000037e6 <isspace>:
    37e6:	91 11       	cpse	r25, r1
    37e8:	3e c0       	rjmp	.+124    	; 0x3866 <__ctype_isfalse>
    37ea:	80 32       	cpi	r24, 0x20	; 32
    37ec:	19 f0       	breq	.+6      	; 0x37f4 <isspace+0xe>
    37ee:	89 50       	subi	r24, 0x09	; 9
    37f0:	85 50       	subi	r24, 0x05	; 5
    37f2:	d0 f7       	brcc	.-12     	; 0x37e8 <isspace+0x2>
    37f4:	08 95       	ret

000037f6 <strncasecmp_P>:
    37f6:	fb 01       	movw	r30, r22
    37f8:	dc 01       	movw	r26, r24
    37fa:	41 50       	subi	r20, 0x01	; 1
    37fc:	50 40       	sbci	r21, 0x00	; 0
    37fe:	88 f0       	brcs	.+34     	; 0x3822 <strncasecmp_P+0x2c>
    3800:	8d 91       	ld	r24, X+
    3802:	81 34       	cpi	r24, 0x41	; 65
    3804:	1c f0       	brlt	.+6      	; 0x380c <strncasecmp_P+0x16>
    3806:	8b 35       	cpi	r24, 0x5B	; 91
    3808:	0c f4       	brge	.+2      	; 0x380c <strncasecmp_P+0x16>
    380a:	80 5e       	subi	r24, 0xE0	; 224
    380c:	65 91       	lpm	r22, Z+
    380e:	61 34       	cpi	r22, 0x41	; 65
    3810:	1c f0       	brlt	.+6      	; 0x3818 <strncasecmp_P+0x22>
    3812:	6b 35       	cpi	r22, 0x5B	; 91
    3814:	0c f4       	brge	.+2      	; 0x3818 <strncasecmp_P+0x22>
    3816:	60 5e       	subi	r22, 0xE0	; 224
    3818:	86 1b       	sub	r24, r22
    381a:	61 11       	cpse	r22, r1
    381c:	71 f3       	breq	.-36     	; 0x37fa <strncasecmp_P+0x4>
    381e:	99 0b       	sbc	r25, r25
    3820:	08 95       	ret
    3822:	88 1b       	sub	r24, r24
    3824:	fc cf       	rjmp	.-8      	; 0x381e <strncasecmp_P+0x28>

00003826 <strrev>:
    3826:	dc 01       	movw	r26, r24
    3828:	fc 01       	movw	r30, r24
    382a:	67 2f       	mov	r22, r23
    382c:	71 91       	ld	r23, Z+
    382e:	77 23       	and	r23, r23
    3830:	e1 f7       	brne	.-8      	; 0x382a <strrev+0x4>
    3832:	32 97       	sbiw	r30, 0x02	; 2
    3834:	04 c0       	rjmp	.+8      	; 0x383e <strrev+0x18>
    3836:	7c 91       	ld	r23, X
    3838:	6d 93       	st	X+, r22
    383a:	70 83       	st	Z, r23
    383c:	62 91       	ld	r22, -Z
    383e:	ae 17       	cp	r26, r30
    3840:	bf 07       	cpc	r27, r31
    3842:	c8 f3       	brcs	.-14     	; 0x3836 <strrev+0x10>
    3844:	08 95       	ret

00003846 <__eerd_block_m2560>:
    3846:	dc 01       	movw	r26, r24
    3848:	cb 01       	movw	r24, r22

0000384a <__eerd_blraw_m2560>:
    384a:	fc 01       	movw	r30, r24
    384c:	f9 99       	sbic	0x1f, 1	; 31
    384e:	fe cf       	rjmp	.-4      	; 0x384c <__eerd_blraw_m2560+0x2>
    3850:	06 c0       	rjmp	.+12     	; 0x385e <__eerd_blraw_m2560+0x14>
    3852:	f2 bd       	out	0x22, r31	; 34
    3854:	e1 bd       	out	0x21, r30	; 33
    3856:	f8 9a       	sbi	0x1f, 0	; 31
    3858:	31 96       	adiw	r30, 0x01	; 1
    385a:	00 b4       	in	r0, 0x20	; 32
    385c:	0d 92       	st	X+, r0
    385e:	41 50       	subi	r20, 0x01	; 1
    3860:	50 40       	sbci	r21, 0x00	; 0
    3862:	b8 f7       	brcc	.-18     	; 0x3852 <__eerd_blraw_m2560+0x8>
    3864:	08 95       	ret

00003866 <__ctype_isfalse>:
    3866:	99 27       	eor	r25, r25
    3868:	88 27       	eor	r24, r24

0000386a <__ctype_istrue>:
    386a:	08 95       	ret

0000386c <_exit>:
    386c:	f8 94       	cli

0000386e <__stop_program>:
    386e:	ff cf       	rjmp	.-2      	; 0x386e <__stop_program>
